

HI-TECH Software LITE Macro Assembler (PIC18) V9.63PL3 build 4692 
                                                       Sun Apr 19 20:32:55 2026

HI-TECH Software Omniscient Code Generator build 4692
     1  000000                     opt subtitle "HI-TECH Software Omniscient Code G
                                 enerator build 4692"
     2                           
     3                           	processor	18F4620
     4  000000                     porta	equ	0F80h
     5  000000                     portb	equ	0F81h
     6  000000                     portc	equ	0F82h
     7  000000                     portd	equ	0F83h
     8  000000                     porte	equ	0F84h
     9  000000                     lata	equ	0F89h
    10  000000                     latb	equ	0F8Ah
    11  000000                     latc	equ	0F8Bh
    12  000000                     latd	equ	0F8Ch
    13  000000                     late	equ	0F8Dh
    14  000000                     trisa	equ	0F92h
    15  000000                     trisb	equ	0F93h
    16  000000                     trisc	equ	0F94h
    17  000000                     trisd	equ	0F95h
    18  000000                     trise	equ	0F96h
    19  000000                     pie1	equ	0F9Dh
    20  000000                     pir1	equ	0F9Eh
    21  000000                     ipr1	equ	0F9Fh
    22  000000                     pie2	equ	0FA0h
    23  000000                     pir2	equ	0FA1h
    24  000000                     ipr2	equ	0FA2h
    25  000000                     t3con	equ	0FB1h
    26  000000                     tmr3l	equ	0FB2h
    27  000000                     tmr3h	equ	0FB3h
    28  000000                     ccp1con	equ	0FBDh
    29  000000                     ccpr1l	equ	0FBEh
    30  000000                     ccpr1h	equ	0FBFh
    31  000000                     adcon1	equ	0FC1h
    32  000000                     adcon0	equ	0FC2h
    33  000000                     adresl	equ	0FC3h
    34  000000                     adresh	equ	0FC4h
    35  000000                     sspcon2	equ	0FC5h
    36  000000                     sspcon1	equ	0FC6h
    37  000000                     sspstat	equ	0FC7h
    38  000000                     sspadd	equ	0FC8h
    39  000000                     sspbuf	equ	0FC9h
    40  000000                     t2con	equ	0FCAh
    41  000000                     pr2	equ	0FCBh
    42  000000                     tmr2	equ	0FCCh
    43  000000                     t1con	equ	0FCDh
    44  000000                     tmr1l	equ	0FCEh
    45  000000                     tmr1h	equ	0FCFh
    46  000000                     rcon	equ	0FD0h
    47  000000                     wdtcon	equ	0FD1h
    48  000000                     lvdcon	equ	0FD2h
    49  000000                     osccon	equ	0FD3h
    50  000000                     t0con	equ	0FD5h
    51  000000                     tmr0l	equ	0FD6h
    52  000000                     tmr0h	equ	0FD7h
    53  000000                     status	equ	0FD8h
    54  000000                     fsr2	equ	0FD9h
    55  000000                     fsr2l	equ	0FD9h
    56  000000                     fsr2h	equ	0FDAh
    57  000000                     plusw2	equ	0FDBh
    58  000000                     preinc2	equ	0FDCh
    59  000000                     postdec2	equ	0FDDh
    60  000000                     postinc2	equ	0FDEh
    61  000000                     indf2	equ	0FDFh
    62  000000                     bsr	equ	0FE0h
    63  000000                     fsr1	equ	0FE1h
    64  000000                     fsr1l	equ	0FE1h
    65  000000                     fsr1h	equ	0FE2h
    66  000000                     plusw1	equ	0FE3h
    67  000000                     preinc1	equ	0FE4h
    68  000000                     postdec1	equ	0FE5h
    69  000000                     postinc1	equ	0FE6h
    70  000000                     indf1	equ	0FE7h
    71  000000                     wreg	equ	0FE8h
    72  000000                     fsr0	equ	0FE9h
    73  000000                     fsr0l	equ	0FE9h
    74  000000                     fsr0h	equ	0FEAh
    75  000000                     plusw0	equ	0FEBh
    76  000000                     preinc0	equ	0FECh
    77  000000                     postdec0	equ	0FEDh
    78  000000                     postinc0	equ	0FEEh
    79  000000                     indf0	equ	0FEFh
    80  000000                     intcon3	equ	0FF0h
    81  000000                     intcon2	equ	0FF1h
    82  000000                     intcon	equ	0FF2h
    83  000000                     prod	equ	0FF3h
    84  000000                     prodl	equ	0FF3h
    85  000000                     prodh	equ	0FF4h
    86  000000                     tablat	equ	0FF5h
    87  000000                     tblptr	equ	0FF6h
    88  000000                     tblptrl	equ	0FF6h
    89  000000                     tblptrh	equ	0FF7h
    90  000000                     tblptru	equ	0FF8h
    91  000000                     pcl	equ	0FF9h
    92  000000                     pclat	equ	0FFAh
    93  000000                     pclath	equ	0FFAh
    94  000000                     pclatu	equ	0FFBh
    95  000000                     stkptr	equ	0FFCh
    96  000000                     tosl	equ	0FFDh
    97  000000                     tosh	equ	0FFEh
    98  000000                     tosu	equ	0FFFh
    99                           	global	__ramtop
   100                           	global	__accesstop
   101                           	GLOBAL	__activetblptr
   102  000000                     __activetblptr	EQU	1
   103                           	GLOBAL	__smallconst,__Lsmallconst
   104  000000                     __smallconst	EQU	__Lsmallconst
   105                           	GLOBAL	__mediumconst,__Lmediumconst
   106  000000                     __mediumconst	EQU	__Lmediumconst
   107                           	GLOBAL	__Ldata
   108  000000                     __Ldata	EQU	120
   109+ 000000                     main@current_step	equ	??_main+0
   110                           	global	main@current_step
   111  000000                     lcd_print@msg	equ	?_lcd_print+0
   112                           	global	lcd_print@msg
   113  000000                     lcd_move@row	equ	?_lcd_move+0
   114+                          	global	lcd_move@row
   115+ 000000                     lcd_move@col	equ	?_lcd_move+1
   116                           	global	lcd_move@col
   117  000000                     update_step_timing@denom	equ	??_update_step_timi
                                 ng+0
   118                           	global	update_step_timing@denom
   119  000000                     lcd_init@mode	equ	?_lcd_init+0
   120+                          	global	lcd_init@mode
   121+ 000000                     lcd_out@i	equ	??_lcd_out+0
   122                           	global	lcd_out@i
   123  000000                     lcd_out@a	equ	??_lcd_out+1
   124                           	global	lcd_out@a
   125  000000                     lcd_out@data	equ	?_lcd_out+0
   126+                          	global	lcd_out@data
   127+ 000000                     lcd_out@d	equ	?_lcd_out+4
   128                           	global	lcd_out@d
   129  000000                     lcd_out@n	equ	?_lcd_out+5
   130                           	global	lcd_out@n
   131  000000                     init_demo_pattern@i	equ	??_init_demo_pattern+0
   132+                          	global	init_demo_pattern@i
   133+ 000000                     ___aldiv@counter	equ	??___aldiv+0
   134                           	global	___aldiv@counter
   135  000000                     ___aldiv@sign	equ	??___aldiv+1
   136                           	global	___aldiv@sign
   137  000000                     ___aldiv@quotient	equ	??___aldiv+2
   138+                          	global	___aldiv@quotient
   139+ 000000                     ___aldiv@dividend	equ	?___aldiv+0
   140                           	global	___aldiv@dividend
   141  000000                     ___aldiv@divisor	equ	?___aldiv+4
   142                           	global	___aldiv@divisor
   143  000000                     ___lldiv@counter	equ	??___lldiv+0
   144+                          	global	___lldiv@counter
   145+ 000000                     ___lldiv@quotient	equ	??___lldiv+1
   146                           	global	___lldiv@quotient
   147  000000                     ___lldiv@dividend	equ	?___lldiv+0
   148                           	global	___lldiv@dividend
   149  000000                     ___lldiv@divisor	equ	?___lldiv+4
   150+                          	global	___lldiv@divisor
   151+ 000000                     ___almod@sign	equ	??___almod+0
   152                           	global	___almod@sign
   153  000000                     ___almod@counter	equ	??___almod+1
   154                           	global	___almod@counter
   155  000000                     ___almod@dividend	equ	?___almod+0
   156+                          	global	___almod@dividend
   157+ 000000                     ___almod@divisor	equ	?___almod+4
   158                           	global	___almod@divisor
   159  000000                     ___lmul@product	equ	??___lmul+0
   160                           	global	___lmul@product
   161  000000                     ___lmul@multiplier	equ	?___lmul+0
   162+                          	global	___lmul@multiplier
   163+ 000000                     ___lmul@multiplicand	equ	?___lmul+4
   164                           	global	___lmul@multiplicand
   165  000000                     lcd_write@c	equ	?_lcd_write+0
   166                           	global	lcd_write@c
   167  000000                     lcd_inst@c	equ	?_lcd_inst+0
   168+                          	global	lcd_inst@c
   169+ 000000                     pwm_set_duty_ccp2@duty10	equ	?_pwm_set_duty_ccp2
      +                          +0
   170                           	global	pwm_set_duty_ccp2@duty10
   171  000000                     pwm_set_duty_ccp1@duty10	equ	?_pwm_set_duty_ccp1
                                 +0
   172                           	global	pwm_set_duty_ccp1@duty10
   173  000000                     wait_ms@i	equ	??_wait_ms+0
   174+                          	global	wait_ms@i
   175+ 000000                     wait_ms@j	equ	??_wait_ms+2
   176                           	global	wait_ms@j
   177  000000                     wait_ms@x	equ	?_wait_ms+0
   178                           	global	wait_ms@x
   179  000000                     lcd_pause@x	equ	??_lcd_pause+0
   180+                          	global	lcd_pause@x
   181+ 000000                     update_audio_output@noise	equ	??_update_audio_ou
      +                          tput+0
   182                           	global	update_audio_output@noise
   183  000000                     update_audio_output@drum_sample	equ	??_update_au
                                 dio_output+2
   184                           	global	update_audio_output@drum_sample
   185  000000                     i2pwm_set_duty_ccp1@duty10	equ	?i2_pwm_set_duty_
                                 ccp1+0
   186+                          	global	i2pwm_set_duty_ccp1@duty10
   187+ 000000                     i2pwm_set_duty_ccp2@duty10	equ	?i2_pwm_set_duty_
      +                          ccp2+0
   188                           	global	i2pwm_set_duty_ccp2@duty10
   189  000000                     to_pwm_duty@sample	equ	?_to_pwm_duty+0
   190                           	global	to_pwm_duty@sample
   191  000000                     ___wmul@product	equ	??___wmul+0
   192+                          	global	___wmul@product
   193+ 000000                     ___wmul@multiplier	equ	?___wmul+0
   194                           	global	___wmul@multiplier
   195  000000                     ___wmul@multiplicand	equ	?___wmul+2
   196                           	global	___wmul@multiplicand
   197  000000                     clamp_audio@x	equ	?_clamp_audio+0
   198+                          	global	clamp_audio@x
   199+                          ;Data sizes: Strings 58, constant 0, data 10, bs
      +                          s 0, persistent 0 stack 65
   200+                          	global	_main
   201+                          	global	??_main
   202+                          	global	?_main
   203+                                  psect   text0,class=CODE,space=0,reloc=2
   204+                          
   205+                          	opt lm
   206+                          	file	"C:\Users\anton\OneDrive\Desktop\Comp_Sci_
      +                          Studies\spring_2026\ece_376\term_project\src\mai
      +                          n.c"
   207+                          	line	269
   208+ 000000                     	__size_of_main	equ	__end_of_main-_main
   209                           ;main.c: 268: void main(void)
   210                           ;main.c: 269: {
   211                           	
   212  001046                     _main:		; BSR set to: ?
   213                           
   214                           	opt stack 28
   215                           	line	270
   216  001046  0101               	movlb	1	; () banked
   217+ 001048  6F01               	movwf	(??_main+1+0)&0ffh
   218  00104A  0E0F               	movlw	low(0Fh)
   219  00104C  6EC1               	movwf	((c:4033)),c
   220+ 00104E  0101               	movlb	1	; () banked
   221  001050  5101               	movf	(??_main+1+0)&0ffh,w
   222                           	line	271
   223                           ;main.c: 271: TRISA = 0x00;
   224  001052  0E00               	movlw	low(0)
   225+ 001054  6E92               	movwf	((c:3986)),c	;volatile
   226                           	line	272
   227                           ;main.c: 272: TRISB = 0x00;
   228  001056  0E00               	movlw	low(0)
   229  001058  6E93               	movwf	((c:3987)),c	;volatile
   230+                          	line	273
   231+                          ;main.c: 273: TRISC = 0x00;
   232+ 00105A  0E00               	movlw	low(0)
   233  00105C  6E94               	movwf	((c:3988)),c	;volatile
   234                           	line	274
   235                           ;main.c: 274: TRISD = 0x00;
   236  00105E  0E00               	movlw	low(0)
   237+ 001060  6E95               	movwf	((c:3989)),c	;volatile
   238                           	line	275
   239                           ;main.c: 275: TRISE = 0x00;
   240  001062  0E00               	movlw	low(0)
   241  001064  6E96               	movwf	((c:3990)),c	;volatile
   242+                          	line	277
   243+                          ;main.c: 277: lcd_init(0);
   244+ 001066  0101               	movlb	1	; () banked
   245  001068  6F01               	movwf	(??_main+1+0)&0ffh
   246+ 00106A  0E00               	movlw	low(0)
   247+ 00106C  0101               	movlb	1	; () banked
   248  00106E  0101               	movlb	1	; () banked
   249+ 001070  6F03               	movwf	((?_lcd_init))&0ffh
   250+ 001072  0101               	movlb	1	; () banked
   251  001074  5101               	movf	(??_main+1+0)&0ffh,w
   252+ 001076  ECC8  F00E         	call	_lcd_init	;wreg free
   253+                          	line	278
   254+                          ;main.c: 278: lcd_move(0, 0); lcd_print("READY")
      +                          ;
   255+ 00107A  0101               	movlb	1	; () banked
   256  00107C  6F01               	movwf	(??_main+1+0)&0ffh
   257+ 00107E  0E00               	movlw	low(0)
   258+ 001080  0101               	movlb	1	; () banked
   259  001082  0101               	movlb	1	; () banked
   260+ 001084  6F04               	movwf	(0+(?_lcd_move+01h))&0ffh
   261+ 001086  0101               	movlb	1	; () banked
   262  001088  5101               	movf	(??_main+1+0)&0ffh,w
   263+ 00108A  0101               	movlb	1	; () banked
   264+ 00108C  6F02               	movwf	(??_main+2+0)&0ffh
   265  00108E  0E00               	movlw	low(0)
   266+ 001090  0101               	movlb	1	; () banked
   267+ 001092  0101               	movlb	1	; () banked
   268  001094  6F03               	movwf	((?_lcd_move))&0ffh
   269+ 001096  0101               	movlb	1	; () banked
   270+ 001098  5102               	movf	(??_main+2+0)&0ffh,w
   271  00109A  EC37  F010         	call	_lcd_move	;wreg free
   272+ 00109E  0E2A               	movlw	low(STR_1)
   273+ 0010A0  0101               	movlb	1	; () banked
   274  0010A2  0101               	movlb	1	; () banked
   275+ 0010A4  6F03               	movwf	((?_lcd_print))&0ffh
   276+ 0010A6  0E10               	movlw	high(STR_1)
   277  0010A8  0101               	movlb	1	; () banked
   278+ 0010AA  6F04               	movwf	((?_lcd_print+1))&0ffh
   279+ 0010AC  EC2C  F012         	call	_lcd_print	;wreg free
   280                           	line	279
   281                           ;main.c: 279: lcd_move(1, 0); lcd_print("PRE-ISR
                                  OK");
   282  0010B0  0101               	movlb	1	; () banked
   283+ 0010B2  6F01               	movwf	(??_main+1+0)&0ffh
   284+ 0010B4  0E00               	movlw	low(0)
   285  0010B6  0101               	movlb	1	; () banked
   286  0010B8  0101               	movlb	1	; () banked
   287  0010BA  6F04               	movwf	(0+(?_lcd_move+01h))&0ffh
   288  0010BC  0101               	movlb	1	; () banked
   289  0010BE  5101               	movf	(??_main+1+0)&0ffh,w
   290  0010C0  0101               	movlb	1	; () banked
   291  0010C2  6F02               	movwf	(??_main+2+0)&0ffh
   292  0010C4  0E01               	movlw	low(01h)
   293  0010C6  0101               	movlb	1	; () banked
   294  0010C8  0101               	movlb	1	; () banked
   295  0010CA  6F03               	movwf	((?_lcd_move))&0ffh
   296  0010CC  0101               	movlb	1	; () banked
   297  0010CE  5102               	movf	(??_main+2+0)&0ffh,w
   298  0010D0  EC37  F010         	call	_lcd_move	;wreg free
   299  0010D4  0E12               	movlw	low(STR_2)
   300  0010D6  0101               	movlb	1	; () banked
   301  0010D8  0101               	movlb	1	; () banked
   302  0010DA  6F03               	movwf	((?_lcd_print))&0ffh
   303  0010DC  0E10               	movlw	high(STR_2)
   304  0010DE  0101               	movlb	1	; () banked
   305  0010E0  6F04               	movwf	((?_lcd_print+1))&0ffh
   306  0010E2  EC2C  F012         	call	_lcd_print	;wreg free
   307                           	line	280
   308                           ;main.c: 280: wait_ms(500);
   309  0010E6  0EF4               	movlw	low(01F4h)
   310  0010E8  0101               	movlb	1	; () banked
   311  0010EA  0101               	movlb	1	; () banked
   312  0010EC  6F07               	movwf	((?_wait_ms))&0ffh
   313  0010EE  0E01               	movlw	high(01F4h)
   314  0010F0  0101               	movlb	1	; () banked
   315  0010F2  6F08               	movwf	((?_wait_ms+1))&0ffh
   316  0010F4  EC79  F010         	call	_wait_ms	;wreg free
   317                           	line	282
   318                           ;main.c: 282: audio_pwm_init();
   319  0010F8  EC97  F012         	call	_audio_pwm_init	;wreg free
   320                           	line	283
   321                           ;main.c: 283: audio_tick_init();
   322  0010FC  ECB9  F012         	call	_audio_tick_init	;wreg free
   323                           	line	286
   324                           ;main.c: 286: if (g_pattern_steps < 8) g_pattern
                                 _steps = 8;
   325  001100  0E08               	movlw	(08h)&0ffh
   326  001102  0100               	movlb	0	; () banked
   327  001104  0100               	movlb	0	; () banked
   328  001106  6180               	cpfslt	((128))&0ffh	;volatile
   329  001108  D001               	goto	u2891
   330  00110A  D001               	goto	u2890
   331  00110C                     u2891:
   332  00110C  D004               	goto	l441
   333  00110E                     u2890:
   334  00110E  0E08               	movlw	low(08h)
   335  001110  0100               	movlb	0	; () banked
   336  001112  0100               	movlb	0	; () banked
   337  001114  6F80               	movwf	((128))&0ffh	;volatile
   338                           	
   339  001116                     l441:		; BSR set to: ?
   340                           
   341                           	line	287
   342                           ;main.c: 287: if (g_pattern_steps > 32) g_patter
                                 n_steps = 32;
   343  001116  0E20               	movlw	(021h-1)
   344  001118  0100               	movlb	0	; () banked
   345  00111A  0100               	movlb	0	; () banked
   346  00111C  6580               	cpfsgt	((128))&0ffh	;volatile
   347  00111E  D001               	goto	u2901
   348  001120  D001               	goto	u2900
   349  001122                     u2901:
   350  001122  D004               	goto	l442
   351  001124                     u2900:
   352  001124  0E20               	movlw	low(020h)
   353  001126  0100               	movlb	0	; () banked
   354  001128  0100               	movlb	0	; () banked
   355  00112A  6F80               	movwf	((128))&0ffh	;volatile
   356                           	
   357  00112C                     l442:		; BSR set to: ?
   358                           
   359                           	line	289
   360                           ;main.c: 289: update_step_timing();
   361  00112C  EC31  F00F         	call	_update_step_timing	;wreg free
   362                           	line	290
   363                           ;main.c: 290: init_demo_pattern();
   364  001130  EC92  F00F         	call	_init_demo_pattern	;wreg free
   365                           	line	292
   366                           ;main.c: 292: PEIE = 1;
   367  001134  8CF2               	bsf	c:(32662/8),(32662)&7
   368                           	line	293
   369                           ;main.c: 293: GIE = 1;
   370  001136  8EF2               	bsf	c:(32663/8),(32663)&7
   371                           	line	296
   372                           ;main.c: 296: lcd_move(1, 0); lcd_print("       
                                          ");
   373  001138  0101               	movlb	1	; () banked
   374  00113A  6F01               	movwf	(??_main+1+0)&0ffh
   375  00113C  0E00               	movlw	low(0)
   376  00113E  0101               	movlb	1	; () banked
   377  001140  0101               	movlb	1	; () banked
   378  001142  6F04               	movwf	(0+(?_lcd_move+01h))&0ffh
   379  001144  0101               	movlb	1	; () banked
   380  001146  5101               	movf	(??_main+1+0)&0ffh,w
   381  001148  0101               	movlb	1	; () banked
   382  00114A  6F02               	movwf	(??_main+2+0)&0ffh
   383  00114C  0E01               	movlw	low(01h)
   384  00114E  0101               	movlb	1	; () banked
   385  001150  0101               	movlb	1	; () banked
   386  001152  6F03               	movwf	((?_lcd_move))&0ffh
   387  001154  0101               	movlb	1	; () banked
   388  001156  5102               	movf	(??_main+2+0)&0ffh,w
   389  001158  EC37  F010         	call	_lcd_move	;wreg free
   390  00115C  0E01               	movlw	low(STR_3)
   391  00115E  0101               	movlb	1	; () banked
   392  001160  0101               	movlb	1	; () banked
   393  001162  6F03               	movwf	((?_lcd_print))&0ffh
   394  001164  0E10               	movlw	high(STR_3)
   395  001166  0101               	movlb	1	; () banked
   396  001168  6F04               	movwf	((?_lcd_print+1))&0ffh
   397  00116A  EC2C  F012         	call	_lcd_print	;wreg free
   398                           	line	297
   399                           ;main.c: 297: lcd_move(0, 0); lcd_print("STEP: "
                                 );
   400  00116E  0101               	movlb	1	; () banked
   401  001170  6F01               	movwf	(??_main+1+0)&0ffh
   402  001172  0E00               	movlw	low(0)
   403  001174  0101               	movlb	1	; () banked
   404  001176  0101               	movlb	1	; () banked
   405  001178  6F04               	movwf	(0+(?_lcd_move+01h))&0ffh
   406  00117A  0101               	movlb	1	; () banked
   407  00117C  5101               	movf	(??_main+1+0)&0ffh,w
   408  00117E  0101               	movlb	1	; () banked
   409  001180  6F02               	movwf	(??_main+2+0)&0ffh
   410  001182  0E00               	movlw	low(0)
   411  001184  0101               	movlb	1	; () banked
   412  001186  0101               	movlb	1	; () banked
   413  001188  6F03               	movwf	((?_lcd_move))&0ffh
   414  00118A  0101               	movlb	1	; () banked
   415  00118C  5102               	movf	(??_main+2+0)&0ffh,w
   416  00118E  EC37  F010         	call	_lcd_move	;wreg free
   417  001192  0E1D               	movlw	low(STR_4)
   418  001194  0101               	movlb	1	; () banked
   419  001196  0101               	movlb	1	; () banked
   420  001198  6F03               	movwf	((?_lcd_print))&0ffh
   421  00119A  0E10               	movlw	high(STR_4)
   422  00119C  0101               	movlb	1	; () banked
   423  00119E  6F04               	movwf	((?_lcd_print+1))&0ffh
   424  0011A0  EC2C  F012         	call	_lcd_print	;wreg free
   425                           	line	298
   426                           ;main.c: 298: lcd_move(0, 9); lcd_print("LEN: ")
                                 ;
   427  0011A4  0101               	movlb	1	; () banked
   428  0011A6  6F01               	movwf	(??_main+1+0)&0ffh
   429  0011A8  0E09               	movlw	low(09h)
   430  0011AA  0101               	movlb	1	; () banked
   431  0011AC  0101               	movlb	1	; () banked
   432  0011AE  6F04               	movwf	(0+(?_lcd_move+01h))&0ffh
   433  0011B0  0101               	movlb	1	; () banked
   434  0011B2  5101               	movf	(??_main+1+0)&0ffh,w
   435  0011B4  0101               	movlb	1	; () banked
   436  0011B6  6F02               	movwf	(??_main+2+0)&0ffh
   437  0011B8  0E00               	movlw	low(0)
   438  0011BA  0101               	movlb	1	; () banked
   439  0011BC  0101               	movlb	1	; () banked
   440  0011BE  6F03               	movwf	((?_lcd_move))&0ffh
   441  0011C0  0101               	movlb	1	; () banked
   442  0011C2  5102               	movf	(??_main+2+0)&0ffh,w
   443  0011C4  EC37  F010         	call	_lcd_move	;wreg free
   444  0011C8  0E30               	movlw	low(STR_5)
   445  0011CA  0101               	movlb	1	; () banked
   446  0011CC  0101               	movlb	1	; () banked
   447  0011CE  6F03               	movwf	((?_lcd_print))&0ffh
   448  0011D0  0E10               	movlw	high(STR_5)
   449  0011D2  0101               	movlb	1	; () banked
   450  0011D4  6F04               	movwf	((?_lcd_print+1))&0ffh
   451  0011D6  EC2C  F012         	call	_lcd_print	;wreg free
   452                           	line	299
   453                           ;main.c: 299: lcd_move(1, 0); lcd_print("BPM: ")
                                 ;
   454  0011DA  0101               	movlb	1	; () banked
   455  0011DC  6F01               	movwf	(??_main+1+0)&0ffh
   456  0011DE  0E00               	movlw	low(0)
   457  0011E0  0101               	movlb	1	; () banked
   458  0011E2  0101               	movlb	1	; () banked
   459  0011E4  6F04               	movwf	(0+(?_lcd_move+01h))&0ffh
   460  0011E6  0101               	movlb	1	; () banked
   461  0011E8  5101               	movf	(??_main+1+0)&0ffh,w
   462  0011EA  0101               	movlb	1	; () banked
   463  0011EC  6F02               	movwf	(??_main+2+0)&0ffh
   464  0011EE  0E01               	movlw	low(01h)
   465  0011F0  0101               	movlb	1	; () banked
   466  0011F2  0101               	movlb	1	; () banked
   467  0011F4  6F03               	movwf	((?_lcd_move))&0ffh
   468  0011F6  0101               	movlb	1	; () banked
   469  0011F8  5102               	movf	(??_main+2+0)&0ffh,w
   470  0011FA  EC37  F010         	call	_lcd_move	;wreg free
   471  0011FE  0E24               	movlw	low(STR_6)
   472  001200  0101               	movlb	1	; () banked
   473  001202  0101               	movlb	1	; () banked
   474  001204  6F03               	movwf	((?_lcd_print))&0ffh
   475  001206  0E10               	movlw	high(STR_6)
   476  001208  0101               	movlb	1	; () banked
   477  00120A  6F04               	movwf	((?_lcd_print+1))&0ffh
   478  00120C  EC2C  F012         	call	_lcd_print	;wreg free
   479                           	line	300
   480                           ;main.c: 300: lcd_move(1, 9); lcd_print("SPQ:");
   481  001210  0101               	movlb	1	; () banked
   482  001212  6F01               	movwf	(??_main+1+0)&0ffh
   483  001214  0E09               	movlw	low(09h)
   484  001216  0101               	movlb	1	; () banked
   485  001218  0101               	movlb	1	; () banked
   486  00121A  6F04               	movwf	(0+(?_lcd_move+01h))&0ffh
   487  00121C  0101               	movlb	1	; () banked
   488  00121E  5101               	movf	(??_main+1+0)&0ffh,w
   489  001220  0101               	movlb	1	; () banked
   490  001222  6F02               	movwf	(??_main+2+0)&0ffh
   491  001224  0E01               	movlw	low(01h)
   492  001226  0101               	movlb	1	; () banked
   493  001228  0101               	movlb	1	; () banked
   494  00122A  6F03               	movwf	((?_lcd_move))&0ffh
   495  00122C  0101               	movlb	1	; () banked
   496  00122E  5102               	movf	(??_main+2+0)&0ffh,w
   497  001230  EC37  F010         	call	_lcd_move	;wreg free
   498  001234  0E36               	movlw	low(STR_7)
   499  001236  0101               	movlb	1	; () banked
   500  001238  0101               	movlb	1	; () banked
   501  00123A  6F03               	movwf	((?_lcd_print))&0ffh
   502  00123C  0E10               	movlw	high(STR_7)
   503  00123E  0101               	movlb	1	; () banked
   504  001240  6F04               	movwf	((?_lcd_print+1))&0ffh
   505  001242  EC2C  F012         	call	_lcd_print	;wreg free
   506                           	line	302
   507                           ;main.c: 302: while (1)
   508                           	
   509  001246                     l444:		; BSR set to: ?
   510                           
   511                           	line	305
   512                           ;main.c: 303: {
   513                           ;main.c: 304: static unsigned char last_displaye
                                 d_step = 255;
   514                           ;main.c: 305: unsigned char current_step = g_ste
                                 p;
   515  001246  C007 F100          	movff	(c:7),(main@current_step)	;volatile
   516                           	line	307
   517                           ;main.c: 307: if (current_step != last_displayed
                                 _step)
   518  00124A  0101               	movlb	1	; () banked
   519  00124C  0101               	movlb	1	; () banked
   520  00124E  5100               	movf	((main@current_step))&0ffh,w
   521  001250  187E               	xorwf	((c:126)),c,w
   522  001252  B4D8               	btfsc	status,2
   523  001254  D001               	goto	u2911
   524  001256  D001               	goto	u2910
   525  001258                     u2911:
   526  001258  D0C1               	goto	l443
   527  00125A                     u2910:
   528                           	line	309
   529                           ;main.c: 308: {
   530                           ;main.c: 309: last_displayed_step = current_step
                                 ;
   531  00125A  C100  F07E         	movff	(main@current_step),(c:126)
   532                           	line	311
   533                           ;main.c: 311: lcd_move(0, 5); lcd_out(current_st
                                 ep, 2, 0);
   534  00125E  0101               	movlb	1	; () banked
   535  001260  6F01               	movwf	(??_main+1+0)&0ffh
   536  001262  0E05               	movlw	low(05h)
   537  001264  0101               	movlb	1	; () banked
   538  001266  0101               	movlb	1	; () banked
   539  001268  6F04               	movwf	(0+(?_lcd_move+01h))&0ffh
   540  00126A  0101               	movlb	1	; () banked
   541  00126C  5101               	movf	(??_main+1+0)&0ffh,w
   542  00126E  0101               	movlb	1	; () banked
   543  001270  6F02               	movwf	(??_main+2+0)&0ffh
   544  001272  0E00               	movlw	low(0)
   545  001274  0101               	movlb	1	; () banked
   546  001276  0101               	movlb	1	; () banked
   547  001278  6F03               	movwf	((?_lcd_move))&0ffh
   548  00127A  0101               	movlb	1	; () banked
   549  00127C  5102               	movf	(??_main+2+0)&0ffh,w
   550  00127E  EC37  F010         	call	_lcd_move	;wreg free
   551  001282  0101               	movlb	1	; () banked
   552  001284  6F01               	movwf	(??_main+1+0)&0ffh
   553  001286  0E00               	movlw	low(0)
   554  001288  0101               	movlb	1	; () banked
   555  00128A  0101               	movlb	1	; () banked
   556  00128C  6F08               	movwf	(0+(?_lcd_out+05h))&0ffh
   557  00128E  0101               	movlb	1	; () banked
   558  001290  5101               	movf	(??_main+1+0)&0ffh,w
   559  001292  0101               	movlb	1	; () banked
   560  001294  6F02               	movwf	(??_main+2+0)&0ffh
   561  001296  0E02               	movlw	low(02h)
   562  001298  0101               	movlb	1	; () banked
   563  00129A  0101               	movlb	1	; () banked
   564  00129C  6F07               	movwf	(0+(?_lcd_out+04h))&0ffh
   565  00129E  0101               	movlb	1	; () banked
   566  0012A0  5102               	movf	(??_main+2+0)&0ffh,w
   567  0012A2  0101               	movlb	1	; () banked
   568  0012A4  0101               	movlb	1	; () banked
   569  0012A6  5100               	movf	((main@current_step))&0ffh,w
   570  0012A8  0101               	movlb	1	; () banked
   571  0012AA  0101               	movlb	1	; () banked
   572  0012AC  6F03               	movwf	((?_lcd_out))&0ffh
   573  0012AE  0101               	movlb	1	; () banked
   574  0012B0  6B04               	clrf	((?_lcd_out+1))&0ffh
   575  0012B2  0101               	movlb	1	; () banked
   576  0012B4  6B05               	clrf	((?_lcd_out+2))&0ffh
   577  0012B6  0101               	movlb	1	; () banked
   578  0012B8  6B06               	clrf	((?_lcd_out+3))&0ffh
   579                           
   580  0012BA  ECFB  F00B         	call	_lcd_out	;wreg free
   581                           	line	312
   582                           ;main.c: 312: lcd_move(0, 13); lcd_out(g_pattern
                                 _steps, 2, 0);
   583  0012BE  0101               	movlb	1	; () banked
   584  0012C0  6F01               	movwf	(??_main+1+0)&0ffh
   585  0012C2  0E0D               	movlw	low(0Dh)
   586  0012C4  0101               	movlb	1	; () banked
   587  0012C6  0101               	movlb	1	; () banked
   588  0012C8  6F04               	movwf	(0+(?_lcd_move+01h))&0ffh
   589  0012CA  0101               	movlb	1	; () banked
   590  0012CC  5101               	movf	(??_main+1+0)&0ffh,w
   591  0012CE  0101               	movlb	1	; () banked
   592  0012D0  6F02               	movwf	(??_main+2+0)&0ffh
   593  0012D2  0E00               	movlw	low(0)
   594  0012D4  0101               	movlb	1	; () banked
   595  0012D6  0101               	movlb	1	; () banked
   596  0012D8  6F03               	movwf	((?_lcd_move))&0ffh
   597  0012DA  0101               	movlb	1	; () banked
   598  0012DC  5102               	movf	(??_main+2+0)&0ffh,w
   599  0012DE  EC37  F010         	call	_lcd_move	;wreg free
   600  0012E2  0101               	movlb	1	; () banked
   601  0012E4  6F01               	movwf	(??_main+1+0)&0ffh
   602  0012E6  0E00               	movlw	low(0)
   603  0012E8  0101               	movlb	1	; () banked
   604  0012EA  0101               	movlb	1	; () banked
   605  0012EC  6F08               	movwf	(0+(?_lcd_out+05h))&0ffh
   606  0012EE  0101               	movlb	1	; () banked
   607  0012F0  5101               	movf	(??_main+1+0)&0ffh,w
   608  0012F2  0101               	movlb	1	; () banked
   609  0012F4  6F02               	movwf	(??_main+2+0)&0ffh
   610  0012F6  0E02               	movlw	low(02h)
   611  0012F8  0101               	movlb	1	; () banked
   612  0012FA  0101               	movlb	1	; () banked
   613  0012FC  6F07               	movwf	(0+(?_lcd_out+04h))&0ffh
   614  0012FE  0101               	movlb	1	; () banked
   615  001300  5102               	movf	(??_main+2+0)&0ffh,w
   616  001302  0100               	movlb	0	; () banked
   617  001304  0100               	movlb	0	; () banked
   618  001306  5180               	movf	((128))&0ffh,w	;volatile
   619  001308  0101               	movlb	1	; () banked
   620  00130A  0101               	movlb	1	; () banked
   621  00130C  6F03               	movwf	((?_lcd_out))&0ffh
   622  00130E  0101               	movlb	1	; () banked
   623  001310  6B04               	clrf	((?_lcd_out+1))&0ffh
   624  001312  0101               	movlb	1	; () banked
   625  001314  6B05               	clrf	((?_lcd_out+2))&0ffh
   626  001316  0101               	movlb	1	; () banked
   627  001318  6B06               	clrf	((?_lcd_out+3))&0ffh
   628                           
   629  00131A  ECFB  F00B         	call	_lcd_out	;wreg free
   630                           	line	313
   631                           ;main.c: 313: lcd_move(1, 4); lcd_out(g_bpm, 3, 
                                 0);
   632  00131E  0101               	movlb	1	; () banked
   633  001320  6F01               	movwf	(??_main+1+0)&0ffh
   634  001322  0E04               	movlw	low(04h)
   635  001324  0101               	movlb	1	; () banked
   636  001326  0101               	movlb	1	; () banked
   637  001328  6F04               	movwf	(0+(?_lcd_move+01h))&0ffh
   638  00132A  0101               	movlb	1	; () banked
   639  00132C  5101               	movf	(??_main+1+0)&0ffh,w
   640  00132E  0101               	movlb	1	; () banked
   641  001330  6F02               	movwf	(??_main+2+0)&0ffh
   642  001332  0E01               	movlw	low(01h)
   643  001334  0101               	movlb	1	; () banked
   644  001336  0101               	movlb	1	; () banked
   645  001338  6F03               	movwf	((?_lcd_move))&0ffh
   646  00133A  0101               	movlb	1	; () banked
   647  00133C  5102               	movf	(??_main+2+0)&0ffh,w
   648  00133E  EC37  F010         	call	_lcd_move	;wreg free
   649  001342  0101               	movlb	1	; () banked
   650  001344  6F01               	movwf	(??_main+1+0)&0ffh
   651  001346  0E00               	movlw	low(0)
   652  001348  0101               	movlb	1	; () banked
   653  00134A  0101               	movlb	1	; () banked
   654  00134C  6F08               	movwf	(0+(?_lcd_out+05h))&0ffh
   655  00134E  0101               	movlb	1	; () banked
   656  001350  5101               	movf	(??_main+1+0)&0ffh,w
   657  001352  0101               	movlb	1	; () banked
   658  001354  6F02               	movwf	(??_main+2+0)&0ffh
   659  001356  0E03               	movlw	low(03h)
   660  001358  0101               	movlb	1	; () banked
   661  00135A  0101               	movlb	1	; () banked
   662  00135C  6F07               	movwf	(0+(?_lcd_out+04h))&0ffh
   663  00135E  0101               	movlb	1	; () banked
   664  001360  5102               	movf	(??_main+2+0)&0ffh,w
   665  001362  0101               	movlb	1	; () banked
   666  001364  C078 F103          	movff	(c:120),(?_lcd_out)	;volatile
   667  001368  0101               	movlb	1	; () banked
   668  00136A  C079 F104          	movff	(c:120+1),(?_lcd_out+1)	;volatile
   669  00136E  0101               	movlb	1	; () banked
   670  001370  0101               	movlb	1	; () banked
   671  001372  6B05               	clrf	((?_lcd_out+2))&0ffh
   672  001374  0101               	movlb	1	; () banked
   673  001376  6B06               	clrf	((?_lcd_out+3))&0ffh
   674                           
   675  001378  ECFB  F00B         	call	_lcd_out	;wreg free
   676                           	line	314
   677                           ;main.c: 314: lcd_move(1, 13); lcd_out(g_steps_p
                                 er_quarter, 1, 0);
   678  00137C  0101               	movlb	1	; () banked
   679  00137E  6F01               	movwf	(??_main+1+0)&0ffh
   680  001380  0E0D               	movlw	low(0Dh)
   681  001382  0101               	movlb	1	; () banked
   682  001384  0101               	movlb	1	; () banked
   683  001386  6F04               	movwf	(0+(?_lcd_move+01h))&0ffh
   684  001388  0101               	movlb	1	; () banked
   685  00138A  5101               	movf	(??_main+1+0)&0ffh,w
   686  00138C  0101               	movlb	1	; () banked
   687  00138E  6F02               	movwf	(??_main+2+0)&0ffh
   688  001390  0E01               	movlw	low(01h)
   689  001392  0101               	movlb	1	; () banked
   690  001394  0101               	movlb	1	; () banked
   691  001396  6F03               	movwf	((?_lcd_move))&0ffh
   692  001398  0101               	movlb	1	; () banked
   693  00139A  5102               	movf	(??_main+2+0)&0ffh,w
   694  00139C  EC37  F010         	call	_lcd_move	;wreg free
   695  0013A0  0101               	movlb	1	; () banked
   696  0013A2  6F01               	movwf	(??_main+1+0)&0ffh
   697  0013A4  0E00               	movlw	low(0)
   698  0013A6  0101               	movlb	1	; () banked
   699  0013A8  0101               	movlb	1	; () banked
   700  0013AA  6F08               	movwf	(0+(?_lcd_out+05h))&0ffh
   701  0013AC  0101               	movlb	1	; () banked
   702  0013AE  5101               	movf	(??_main+1+0)&0ffh,w
   703  0013B0  0101               	movlb	1	; () banked
   704  0013B2  6F02               	movwf	(??_main+2+0)&0ffh
   705  0013B4  0E01               	movlw	low(01h)
   706  0013B6  0101               	movlb	1	; () banked
   707  0013B8  0101               	movlb	1	; () banked
   708  0013BA  6F07               	movwf	(0+(?_lcd_out+04h))&0ffh
   709  0013BC  0101               	movlb	1	; () banked
   710  0013BE  5102               	movf	(??_main+2+0)&0ffh,w
   711  0013C0  0100               	movlb	0	; () banked
   712  0013C2  0100               	movlb	0	; () banked
   713  0013C4  5181               	movf	((129))&0ffh,w	;volatile
   714  0013C6  0101               	movlb	1	; () banked
   715  0013C8  0101               	movlb	1	; () banked
   716  0013CA  6F03               	movwf	((?_lcd_out))&0ffh
   717  0013CC  0101               	movlb	1	; () banked
   718  0013CE  6B04               	clrf	((?_lcd_out+1))&0ffh
   719  0013D0  0101               	movlb	1	; () banked
   720  0013D2  6B05               	clrf	((?_lcd_out+2))&0ffh
   721  0013D4  0101               	movlb	1	; () banked
   722  0013D6  6B06               	clrf	((?_lcd_out+3))&0ffh
   723                           
   724  0013D8  ECFB  F00B         	call	_lcd_out	;wreg free
   725                           	line	315
   726                           	
   727  0013DC                     l446:		; BSR set to: ?
   728                           
   729                           	line	316
   730                           	
   731  0013DC                     l443:		; BSR set to: ?
   732                           
   733                           	line	302
   734  0013DC  D734               	goto	l444
   735                           	global	start
   736  0013DE  EF0C  F004         	goto	start
   737                           	opt stack 0
   738                           GLOBAL __end_of_main
   739  0013E2                     	__end_of_main:
   740                           	FNSIZE	_main,3,0
   741                           ; =============== function _main ends ==========
                                 ==
   742                           
   743                                   psect   text1,class=CODE,space=0,reloc=2
   744                           	line	317
   745                           
   746                           	opt lm
   747                           	signat	_main,88
   748                           	global	_lcd_print
   749                           	global	??_lcd_print
   750                           	global	?_lcd_print
   751                           	file	"C:\Users\anton\OneDrive\Desktop\Comp_Sci_
                                 Studies\spring_2026\ece_376\term_project\src\lcd
                                 _helpers.c"
   752                           	line	7
   753  000000                     	__size_of_lcd_print	equ	__end_of_lcd_print-_lcd
                                 _print
   754                           ;lcd_helpers.c: 6: void lcd_print(const char *ms
                                 g)
   755                           ;lcd_helpers.c: 7: {
   756                           	
   757  002458                     _lcd_print:		; BSR set to: ?
   758                           
   759                           	opt stack 27
   760                           	line	8
   761  002458  D010               	goto	l110
   762                           	
   763  00245A                     l111:		; BSR set to: ?
   764                           
   765  00245A  0101               	movlb	1	; () banked
   766  00245C  C103  FFF6         	movff	(lcd_print@msg),tblptrl
   767  002460  0101               	movlb	1	; () banked
   768  002462  C104  FFF7         	movff	(lcd_print@msg+1),tblptrh
   769  002466  0008               	tblrd	*
   770                           	
   771  002468  0101               	movlb	1	; () banked
   772  00246A  CFF5 F115          	movff	tablat,(?_lcd_write)
   773  00246E  EC4B  F012         	call	_lcd_write	;wreg free
   774  002472  0101               	movlb	1	; () banked
   775  002474  0101               	movlb	1	; () banked
   776  002476  4B03               	infsnz	((lcd_print@msg))&0ffh
   777  002478  2B04               	incf	((lcd_print@msg+1))&0ffh
   778                           	
   779  00247A                     l110:		; BSR set to: ?
   780                           
   781  00247A  0101               	movlb	1	; () banked
   782  00247C  C103  FFF6         	movff	(lcd_print@msg),tblptrl
   783  002480  0101               	movlb	1	; () banked
   784  002482  C104  FFF7         	movff	(lcd_print@msg+1),tblptrh
   785  002486  0008               	tblrd	*
   786                           	
   787  002488  50F5               	movf	tablat,w
   788                           
   789  00248A  0900               	iorlw	0
   790+ 00248C  A4D8               	btfss	status,2
   791+ 00248E  D001               	goto	u2991
   792  002490  D001               	goto	u2990
   793  002492                     u2991:
   794  002492  D7E3               	goto	l111
   795  002494                     u2990:
   796                           	
   797  002494                     l112:		; BSR set to: ?
   798                           
   799                           	line	9
   800                           ;lcd_helpers.c: 9: }
   801  002494                     l109:
   802                           			; BSR set to: ?
   803                           
   804  002494  0012               	return
   805                           	opt stack 0
   806                           GLOBAL __end_of_lcd_print
   807  002496                     	__end_of_lcd_print:
   808                           	FNSIZE	_lcd_print,0,2
   809                           ; =============== function _lcd_print ends =====
                                 =======
   810                           
   811                           	signat	_lcd_print,4216
   812                           	global	_lcd_move
   813                           	global	??_lcd_move
   814                           	global	?_lcd_move
   815                                   psect   text2,class=CODE,space=0,reloc=2
   816                           
   817                           	opt lm
   818                           	file	"C:\Users\anton\OneDrive\Desktop\Comp_Sci_
                                 Studies\spring_2026\ece_376\term_project\src\lcd
                                 _portd.c"
   819                           	line	68
   820  000000                     	__size_of_lcd_move	equ	__end_of_lcd_move-_lcd_m
                                 ove
   821                           ;lcd_portd.c: 67: void lcd_move(unsigned char ro
                                 w, unsigned char col)
   822                           ;lcd_portd.c: 68: {
   823                           	
   824  00206E                     _lcd_move:		; BSR set to: ?
   825                           
   826                           	opt stack 27
   827                           	line	78
   828                           ;lcd_portd.c: 78: if (row == 0) lcd_inst(0x80 + 
                                 col);
   829  00206E  0101               	movlb	1	; () banked
   830  002070  0101               	movlb	1	; () banked
   831  002072  6703               	tstfsz	((lcd_move@row))&0ffh
   832  002074  D001               	goto	u3001
   833  002076  D001               	goto	u3000
   834  002078                     u3001:
   835  002078  D009               	goto	l243
   836  00207A                     u3000:
   837  00207A  0101               	movlb	1	; () banked
   838  00207C  0101               	movlb	1	; () banked
   839  00207E  5104               	movf	((lcd_move@col))&0ffh,w
   840  002080  0F80               	addlw	low(080h)
   841  002082  0101               	movlb	1	; () banked
   842  002084  0101               	movlb	1	; () banked
   843  002086  6F05               	movwf	((?_lcd_inst))&0ffh
   844  002088  EC05  F012         	call	_lcd_inst	;wreg free
   845                           	
   846  00208C                     l243:		; BSR set to: ?
   847                           
   848                           	line	79
   849                           ;lcd_portd.c: 79: if (row == 1) lcd_inst(0xC0 + 
                                 col);
   850  00208C  0101               	movlb	1	; () banked
   851  00208E  0101               	movlb	1	; () banked
   852  002090  0503               	decf	((lcd_move@row))&0ffh,w
   853                           
   854  002092  A4D8               	btfss	status,2
   855  002094  D001               	goto	u3011
   856  002096  D001               	goto	u3010
   857  002098                     u3011:
   858  002098  D009               	goto	l244
   859  00209A                     u3010:
   860  00209A  0101               	movlb	1	; () banked
   861  00209C  0101               	movlb	1	; () banked
   862  00209E  5104               	movf	((lcd_move@col))&0ffh,w
   863  0020A0  0FC0               	addlw	low(0C0h)
   864  0020A2  0101               	movlb	1	; () banked
   865  0020A4  0101               	movlb	1	; () banked
   866  0020A6  6F05               	movwf	((?_lcd_inst))&0ffh
   867  0020A8  EC05  F012         	call	_lcd_inst	;wreg free
   868                           	
   869  0020AC                     l244:		; BSR set to: ?
   870                           
   871                           	line	80
   872                           ;lcd_portd.c: 80: if (row == 2) lcd_inst(0x94 + 
                                 col);
   873  0020AC  0101               	movlb	1	; () banked
   874  0020AE  0101               	movlb	1	; () banked
   875  0020B0  5103               	movf	((lcd_move@row))&0ffh,w
   876  0020B2  0A02               	xorlw	2
   877                           
   878  0020B4  A4D8               	btfss	status,2
   879  0020B6  D001               	goto	u3021
   880  0020B8  D001               	goto	u3020
   881  0020BA                     u3021:
   882  0020BA  D009               	goto	l245
   883  0020BC                     u3020:
   884  0020BC  0101               	movlb	1	; () banked
   885  0020BE  0101               	movlb	1	; () banked
   886  0020C0  5104               	movf	((lcd_move@col))&0ffh,w
   887  0020C2  0F94               	addlw	low(094h)
   888  0020C4  0101               	movlb	1	; () banked
   889  0020C6  0101               	movlb	1	; () banked
   890  0020C8  6F05               	movwf	((?_lcd_inst))&0ffh
   891  0020CA  EC05  F012         	call	_lcd_inst	;wreg free
   892                           	
   893  0020CE                     l245:		; BSR set to: ?
   894                           
   895                           	line	81
   896                           ;lcd_portd.c: 81: if (row == 3) lcd_inst(0xD4 + 
                                 col);
   897  0020CE  0101               	movlb	1	; () banked
   898  0020D0  0101               	movlb	1	; () banked
   899  0020D2  5103               	movf	((lcd_move@row))&0ffh,w
   900  0020D4  0A03               	xorlw	3
   901                           
   902  0020D6  A4D8               	btfss	status,2
   903  0020D8  D001               	goto	u3031
   904  0020DA  D001               	goto	u3030
   905  0020DC                     u3031:
   906  0020DC  D009               	goto	l246
   907  0020DE                     u3030:
   908  0020DE  0101               	movlb	1	; () banked
   909  0020E0  0101               	movlb	1	; () banked
   910  0020E2  5104               	movf	((lcd_move@col))&0ffh,w
   911  0020E4  0FD4               	addlw	low(0D4h)
   912  0020E6  0101               	movlb	1	; () banked
   913  0020E8  0101               	movlb	1	; () banked
   914  0020EA  6F05               	movwf	((?_lcd_inst))&0ffh
   915  0020EC  EC05  F012         	call	_lcd_inst	;wreg free
   916                           	
   917  0020F0                     l246:		; BSR set to: ?
   918                           
   919                           	line	82
   920                           ;lcd_portd.c: 82: }
   921  0020F0                     l242:
   922                           			; BSR set to: ?
   923                           
   924  0020F0  0012               	return
   925                           	opt stack 0
   926                           GLOBAL __end_of_lcd_move
   927  0020F2                     	__end_of_lcd_move:
   928                           	FNSIZE	_lcd_move,0,2
   929                           ; =============== function _lcd_move ends ======
                                 ======
   930                           
   931                           	signat	_lcd_move,8312
   932                           	global	_audio_pwm_init
   933                           	global	??_audio_pwm_init
   934                           	global	?_audio_pwm_init
   935                                   psect   text3,class=CODE,space=0,reloc=2
   936                           
   937                           	opt lm
   938                           	file	"C:\Users\anton\OneDrive\Desktop\Comp_Sci_
                                 Studies\spring_2026\ece_376\term_project\src\mai
                                 n.c"
   939                           	line	113
   940  000000                     	__size_of_audio_pwm_init	equ	__end_of_audio_pwm
                                 _init-_audio_pwm_init
   941                           ;main.c: 112: static void audio_pwm_init(void)
   942                           ;main.c: 113: {
   943                           	
   944  00252E                     _audio_pwm_init:		; BSR set to: ?
   945                           
   946                           	opt stack 27
   947                           	line	114
   948                           ;main.c: 114: PR2 = 0x7F;
   949  00252E  0101               	movlb	1	; () banked
   950  002530  6F03               	movwf	(??_audio_pwm_init+0+0)&0ffh
   951  002532  0E7F               	movlw	low(07Fh)
   952  002534  6ECB               	movwf	((c:4043)),c
   953  002536  0101               	movlb	1	; () banked
   954  002538  5103               	movf	(??_audio_pwm_init+0+0)&0ffh,w
   955                           	line	115
   956                           ;main.c: 115: T2CON = 0x04;
   957  00253A  0101               	movlb	1	; () banked
   958  00253C  6F03               	movwf	(??_audio_pwm_init+0+0)&0ffh
   959  00253E  0E04               	movlw	low(04h)
   960  002540  6ECA               	movwf	((c:4042)),c
   961  002542  0101               	movlb	1	; () banked
   962  002544  5103               	movf	(??_audio_pwm_init+0+0)&0ffh,w
   963                           	line	116
   964                           ;main.c: 116: CCP1CON = 0x0C;
   965  002546  0E0C               	movlw	low(0Ch)
   966  002548  6EBD               	movwf	((c:4029)),c	;volatile
   967                           	line	117
   968                           ;main.c: 117: CCP2CON = 0x0C;
   969  00254A  0E0C               	movlw	low(0Ch)
   970  00254C  6EBA               	movwf	((c:4026)),c	;volatile
   971                           	line	118
   972                           ;main.c: 118: pwm_set_midpoint();
   973  00254E  EC84  F012         	call	_pwm_set_midpoint	;wreg free
   974                           	line	119
   975                           ;main.c: 119: }
   976  002552                     l407:
   977                           			; BSR set to: ?
   978                           
   979  002552  0012               	return
   980                           	opt stack 0
   981                           GLOBAL __end_of_audio_pwm_init
   982  002554                     	__end_of_audio_pwm_init:
   983                           	FNSIZE	_audio_pwm_init,1,0
   984                           ; =============== function _audio_pwm_init ends 
                                 ============
   985                           
   986                           	signat	_audio_pwm_init,88
   987                           	global	_audio_tick_init
   988                           	global	??_audio_tick_init
   989                           	global	?_audio_tick_init
   990                                   psect   text4,class=CODE,space=0,reloc=2
   991                           
   992                           	opt lm
   993                           	file	"C:\Users\anton\OneDrive\Desktop\Comp_Sci_
                                 Studies\spring_2026\ece_376\term_project\src\mai
                                 n.c"
   994                           	line	130
   995  000000                     	__size_of_audio_tick_init	equ	__end_of_audio_ti
                                 ck_init-_audio_tick_init
   996                           ;main.c: 129: static void audio_tick_init(void)
   997                           ;main.c: 130: {
   998                           	
   999  002572                     _audio_tick_init:		; BSR set to: ?
  1000                           
  1001                           	opt stack 27
  1002                           	line	139
  1003  002572  0101               	movlb	1	; () banked
  1004  002574  6F03               	movwf	(??_audio_tick_init+0+0)&0ffh
  1005  002576  0E88               	movlw	low(088h)
  1006  002578  6ED5               	movwf	((c:4053)),c
  1007  00257A  0101               	movlb	1	; () banked
  1008  00257C  5103               	movf	(??_audio_tick_init+0+0)&0ffh,w
  1009                           	line	140
  1010                           ;main.c: 140: timer0_load();
  1011  00257E  ECD3  F012         	call	_timer0_load	;wreg free
  1012                           	line	141
  1013                           ;main.c: 141: TMR0IF = 0;
  1014  002582  94F2               	bcf	c:(32658/8),(32658)&7	;volatile
  1015                           	line	142
  1016                           ;main.c: 142: TMR0IE = 1;
  1017  002584  8AF2               	bsf	c:(32661/8),(32661)&7
  1018                           	line	143
  1019                           ;main.c: 143: }
  1020  002586                     l409:
  1021                           			; BSR set to: ?
  1022                           
  1023  002586  0012               	return
  1024                           	opt stack 0
  1025                           GLOBAL __end_of_audio_tick_init
  1026  002588                     	__end_of_audio_tick_init:
  1027                           	FNSIZE	_audio_tick_init,1,0
  1028                           ; =============== function _audio_tick_init ends
                                  ============
  1029                           
  1030                           	signat	_audio_tick_init,88
  1031                           	global	_update_step_timing
  1032                           	global	??_update_step_timing
  1033                           	global	?_update_step_timing
  1034                                   psect   text5,class=CODE,space=0,reloc=2
  1035                           
  1036                           	opt lm
  1037                           	file	"C:\Users\anton\OneDrive\Desktop\Comp_Sci_
                                 Studies\spring_2026\ece_376\term_project\src\mai
                                 n.c"
  1038                           	line	255
  1039  000000                     	__size_of_update_step_timing	equ	__end_of_updat
                                 e_step_timing-_update_step_timing
  1040                           ;main.c: 254: static void update_step_timing(voi
                                 d)
  1041                           ;main.c: 255: {
  1042                           	
  1043  001E62                     _update_step_timing:		; BSR set to: ?
  1044                           
  1045                           	opt stack 27
  1046                           	line	261
  1047                           ;main.c: 261: if (g_steps_per_quarter == 0) g_st
                                 eps_per_quarter = 1;
  1048  001E62  0100               	movlb	0	; () banked
  1049  001E64  0100               	movlb	0	; () banked
  1050  001E66  6781               	tstfsz	((129))&0ffh	;volatile
  1051  001E68  D001               	goto	u3041
  1052  001E6A  D001               	goto	u3040
  1053  001E6C                     u3041:
  1054  001E6C  D004               	goto	l438
  1055  001E6E                     u3040:
  1056  001E6E  0E01               	movlw	low(01h)
  1057  001E70  0100               	movlb	0	; () banked
  1058  001E72  0100               	movlb	0	; () banked
  1059  001E74  6F81               	movwf	((129))&0ffh	;volatile
  1060                           	
  1061  001E76                     l438:		; BSR set to: ?
  1062                           
  1063                           	line	263
  1064                           ;main.c: 263: unsigned long denom = (unsigned lo
                                 ng)g_bpm * (unsigned long) g_steps_per_quarter;
  1065  001E76  0100               	movlb	0	; () banked
  1066  001E78  0100               	movlb	0	; () banked
  1067  001E7A  5181               	movf	((129))&0ffh,w	;volatile
  1068  001E7C  0101               	movlb	1	; () banked
  1069  001E7E  0101               	movlb	1	; () banked
  1070  001E80  6F0B               	movwf	(0+(?___lmul+04h))&0ffh
  1071  001E82  0101               	movlb	1	; () banked
  1072  001E84  6B0C               	clrf	(1+(?___lmul+04h))&0ffh
  1073  001E86  0101               	movlb	1	; () banked
  1074  001E88  6B0D               	clrf	(2+(?___lmul+04h))&0ffh
  1075  001E8A  0101               	movlb	1	; () banked
  1076  001E8C  6B0E               	clrf	(3+(?___lmul+04h))&0ffh
  1077                           
  1078  001E8E  0101               	movlb	1	; () banked
  1079  001E90  C078 F107          	movff	(c:120),(?___lmul)	;volatile
  1080  001E94  0101               	movlb	1	; () banked
  1081  001E96  C079 F108          	movff	(c:120+1),(?___lmul+1)	;volatile
  1082  001E9A  0101               	movlb	1	; () banked
  1083  001E9C  0101               	movlb	1	; () banked
  1084  001E9E  6B09               	clrf	((?___lmul+2))&0ffh
  1085  001EA0  0101               	movlb	1	; () banked
  1086  001EA2  6B0A               	clrf	((?___lmul+3))&0ffh
  1087                           
  1088  001EA4  ECE5  F00F         	call	___lmul	;wreg free
  1089  001EA8  C107  F103         	movff	0+?___lmul,(update_step_timing@denom)
  1090  001EAC  C108  F104         	movff	1+?___lmul,(update_step_timing@denom+1)
  1091  001EB0  C109  F105         	movff	2+?___lmul,(update_step_timing@denom+2)
  1092  001EB4  C10A  F106         	movff	3+?___lmul,(update_step_timing@denom+3)
  1093                           	line	264
  1094                           ;main.c: 264: if (denom == 0UL) denom = 1UL;
  1095  001EB8  0101               	movlb	1	; () banked
  1096  001EBA  5106               	movf	((update_step_timing@denom+3))&0ffh,w
  1097  001EBC  1103               	iorwf ((update_step_timing@denom))&0ffh,w
  1098  001EBE  1104               	iorwf ((update_step_timing@denom+1))&0ffh,w
  1099  001EC0  1105               	iorwf ((update_step_timing@denom+2))&0ffh,w
  1100                           
  1101  001EC2  A4D8               	btfss	status,2
  1102  001EC4  D001               	goto	u3051
  1103  001EC6  D001               	goto	u3050
  1104  001EC8                     u3051:
  1105  001EC8  D00D               	goto	l439
  1106  001ECA                     u3050:
  1107  001ECA  0E01               	movlw	low(01h)
  1108  001ECC  0101               	movlb	1	; () banked
  1109  001ECE  0101               	movlb	1	; () banked
  1110  001ED0  6F03               	movwf	((update_step_timing@denom))&0ffh
  1111  001ED2  0E00               	movlw	high(01h)
  1112  001ED4  0101               	movlb	1	; () banked
  1113  001ED6  6F04               	movwf	((update_step_timing@denom+1))&0ffh
  1114  001ED8  0E00               	movlw	low highword(01h)
  1115  001EDA  0101               	movlb	1	; () banked
  1116  001EDC  6F05               	movwf	((update_step_timing@denom+2))&0ffh
  1117  001EDE  0E00               	movlw	high highword(01h)
  1118  001EE0  0101               	movlb	1	; () banked
  1119  001EE2  6F06               	movwf	((update_step_timing@denom+3))&0ffh
  1120                           	
  1121  001EE4                     l439:		; BSR set to: ?
  1122                           
  1123                           	line	265
  1124                           ;main.c: 265: g_samples_per_step = (25000UL * 60
                                 UL) / denom;
  1125  001EE4  C103  F10B         	movff	(update_step_timing@denom),0+(?___lldiv+0
                                 4h)
  1126  001EE8  C104  F10C         	movff	(update_step_timing@denom+1),1+(?___lldiv
                                 +04h)
  1127  001EEC  C105  F10D         	movff	(update_step_timing@denom+2),2+(?___lldiv
                                 +04h)
  1128  001EF0  C106  F10E         	movff	(update_step_timing@denom+3),3+(?___lldiv
                                 +04h)
  1129  001EF4  0E60               	movlw	low(016E360h)
  1130  001EF6  0101               	movlb	1	; () banked
  1131  001EF8  0101               	movlb	1	; () banked
  1132  001EFA  6F07               	movwf	((?___lldiv))&0ffh
  1133  001EFC  0EE3               	movlw	high(016E360h)
  1134  001EFE  0101               	movlb	1	; () banked
  1135  001F00  6F08               	movwf	((?___lldiv+1))&0ffh
  1136  001F02  0E16               	movlw	low highword(016E360h)
  1137  001F04  0101               	movlb	1	; () banked
  1138  001F06  6F09               	movwf	((?___lldiv+2))&0ffh
  1139  001F08  0E00               	movlw	high highword(016E360h)
  1140  001F0A  0101               	movlb	1	; () banked
  1141  001F0C  6F0A               	movwf	((?___lldiv+3))&0ffh
  1142  001F0E  EC3D  F00E         	call	___lldiv	;wreg free
  1143  001F12  C107  F074         	movff	0+?___lldiv,(c:116)	;volatile
  1144  001F16  C108  F075         	movff	1+?___lldiv,(c:116+1)	;volatile
  1145  001F1A  C109  F076         	movff	2+?___lldiv,(c:116+2)	;volatile
  1146  001F1E  C10A  F077         	movff	3+?___lldiv,(c:116+3)	;volatile
  1147                           	line	266
  1148                           ;main.c: 266: }
  1149  001F22                     l437:
  1150                           			; BSR set to: ?
  1151                           
  1152  001F22  0012               	return
  1153                           	opt stack 0
  1154                           GLOBAL __end_of_update_step_timing
  1155  001F24                     	__end_of_update_step_timing:
  1156                           	FNSIZE	_update_step_timing,4,0
  1157                           ; =============== function _update_step_timing e
                                 nds ============
  1158                           
  1159                           	signat	_update_step_timing,88
  1160                           	global	_lcd_init
  1161                           	global	??_lcd_init
  1162                           	global	?_lcd_init
  1163                                   psect   text6,class=CODE,space=0,reloc=2
  1164                           
  1165                           	opt lm
  1166                           	file	"C:\Users\anton\OneDrive\Desktop\Comp_Sci_
                                 Studies\spring_2026\ece_376\term_project\src\lcd
                                 _portd.c"
  1167                           	line	100
  1168  000000                     	__size_of_lcd_init	equ	__end_of_lcd_init-_lcd_i
                                 nit
  1169                           ;lcd_portd.c: 99: void lcd_init(lcd_mode_t mode)
  1170                           ;lcd_portd.c: 100: {
  1171                           	
  1172  001D90                     _lcd_init:		; BSR set to: ?
  1173                           
  1174                           	opt stack 27
  1175                           	line	101
  1176  001D90  0E01               	movlw	low(01h)
  1177  001D92  6E95               	movwf	((c:3989)),c	;volatile
  1178                           	line	102
  1179                           ;lcd_portd.c: 102: RD1 = 0;
  1180  001D94  9283               	bcf	c:(31769/8),(31769)&7	;volatile
  1181                           	line	103
  1182                           ;lcd_portd.c: 103: lcd_inst(0x33);
  1183  001D96  0101               	movlb	1	; () banked
  1184  001D98  6F04               	movwf	(??_lcd_init+0+0)&0ffh
  1185  001D9A  0E33               	movlw	low(033h)
  1186  001D9C  0101               	movlb	1	; () banked
  1187  001D9E  0101               	movlb	1	; () banked
  1188  001DA0  6F05               	movwf	((?_lcd_inst))&0ffh
  1189  001DA2  0101               	movlb	1	; () banked
  1190  001DA4  5104               	movf	(??_lcd_init+0+0)&0ffh,w
  1191  001DA6  EC05  F012         	call	_lcd_inst	;wreg free
  1192                           	line	104
  1193                           ;lcd_portd.c: 104: lcd_inst(0x32);
  1194  001DAA  0101               	movlb	1	; () banked
  1195  001DAC  6F04               	movwf	(??_lcd_init+0+0)&0ffh
  1196  001DAE  0E32               	movlw	low(032h)
  1197  001DB0  0101               	movlb	1	; () banked
  1198  001DB2  0101               	movlb	1	; () banked
  1199  001DB4  6F05               	movwf	((?_lcd_inst))&0ffh
  1200  001DB6  0101               	movlb	1	; () banked
  1201  001DB8  5104               	movf	(??_lcd_init+0+0)&0ffh,w
  1202  001DBA  EC05  F012         	call	_lcd_inst	;wreg free
  1203                           	line	105
  1204                           ;lcd_portd.c: 105: lcd_inst(0x28);
  1205  001DBE  0101               	movlb	1	; () banked
  1206  001DC0  6F04               	movwf	(??_lcd_init+0+0)&0ffh
  1207  001DC2  0E28               	movlw	low(028h)
  1208  001DC4  0101               	movlb	1	; () banked
  1209  001DC6  0101               	movlb	1	; () banked
  1210  001DC8  6F05               	movwf	((?_lcd_inst))&0ffh
  1211  001DCA  0101               	movlb	1	; () banked
  1212  001DCC  5104               	movf	(??_lcd_init+0+0)&0ffh,w
  1213  001DCE  EC05  F012         	call	_lcd_inst	;wreg free
  1214                           	line	106
  1215                           ;lcd_portd.c: 106: lcd_inst(0x0E);
  1216  001DD2  0101               	movlb	1	; () banked
  1217  001DD4  6F04               	movwf	(??_lcd_init+0+0)&0ffh
  1218  001DD6  0E0E               	movlw	low(0Eh)
  1219  001DD8  0101               	movlb	1	; () banked
  1220  001DDA  0101               	movlb	1	; () banked
  1221  001DDC  6F05               	movwf	((?_lcd_inst))&0ffh
  1222  001DDE  0101               	movlb	1	; () banked
  1223  001DE0  5104               	movf	(??_lcd_init+0+0)&0ffh,w
  1224  001DE2  EC05  F012         	call	_lcd_inst	;wreg free
  1225                           	line	107
  1226                           ;lcd_portd.c: 107: lcd_inst(0x01);
  1227  001DE6  0101               	movlb	1	; () banked
  1228  001DE8  6F04               	movwf	(??_lcd_init+0+0)&0ffh
  1229  001DEA  0E01               	movlw	low(01h)
  1230  001DEC  0101               	movlb	1	; () banked
  1231  001DEE  0101               	movlb	1	; () banked
  1232  001DF0  6F05               	movwf	((?_lcd_inst))&0ffh
  1233  001DF2  0101               	movlb	1	; () banked
  1234  001DF4  5104               	movf	(??_lcd_init+0+0)&0ffh,w
  1235  001DF6  EC05  F012         	call	_lcd_inst	;wreg free
  1236                           	line	110
  1237                           ;lcd_portd.c: 110: switch (mode)
  1238  001DFA  D021               	goto	l250
  1239                           	line	112
  1240                           ;lcd_portd.c: 111: {
  1241                           ;lcd_portd.c: 112: case 1:
  1242                           	
  1243  001DFC                     l251:		; BSR set to: ?
  1244                           
  1245                           	line	113
  1246                           ;lcd_portd.c: 113: lcd_inst(0x07);
  1247  001DFC  0101               	movlb	1	; () banked
  1248  001DFE  6F04               	movwf	(??_lcd_init+0+0)&0ffh
  1249  001E00  0E07               	movlw	low(07h)
  1250  001E02  0101               	movlb	1	; () banked
  1251  001E04  0101               	movlb	1	; () banked
  1252  001E06  6F05               	movwf	((?_lcd_inst))&0ffh
  1253  001E08  0101               	movlb	1	; () banked
  1254  001E0A  5104               	movf	(??_lcd_init+0+0)&0ffh,w
  1255  001E0C  EC05  F012         	call	_lcd_inst	;wreg free
  1256                           	line	114
  1257                           ;lcd_portd.c: 114: break;
  1258  001E10  D01E               	goto	l249
  1259                           	line	116
  1260                           ;lcd_portd.c: 116: case 2:
  1261                           	
  1262  001E12                     l252:		; BSR set to: ?
  1263                           
  1264                           	line	117
  1265                           ;lcd_portd.c: 117: lcd_inst(0x05);
  1266  001E12  0101               	movlb	1	; () banked
  1267  001E14  6F04               	movwf	(??_lcd_init+0+0)&0ffh
  1268  001E16  0E05               	movlw	low(05h)
  1269  001E18  0101               	movlb	1	; () banked
  1270  001E1A  0101               	movlb	1	; () banked
  1271  001E1C  6F05               	movwf	((?_lcd_inst))&0ffh
  1272  001E1E  0101               	movlb	1	; () banked
  1273  001E20  5104               	movf	(??_lcd_init+0+0)&0ffh,w
  1274  001E22  EC05  F012         	call	_lcd_inst	;wreg free
  1275                           	line	118
  1276                           ;lcd_portd.c: 118: break;
  1277  001E26  D013               	goto	l249
  1278                           	line	120
  1279                           ;lcd_portd.c: 120: default:
  1280                           	
  1281  001E28                     l253:		; BSR set to: ?
  1282                           
  1283                           	line	121
  1284                           ;lcd_portd.c: 121: lcd_inst(0x06);
  1285  001E28  0101               	movlb	1	; () banked
  1286  001E2A  6F04               	movwf	(??_lcd_init+0+0)&0ffh
  1287  001E2C  0E06               	movlw	low(06h)
  1288  001E2E  0101               	movlb	1	; () banked
  1289  001E30  0101               	movlb	1	; () banked
  1290  001E32  6F05               	movwf	((?_lcd_inst))&0ffh
  1291  001E34  0101               	movlb	1	; () banked
  1292  001E36  5104               	movf	(??_lcd_init+0+0)&0ffh,w
  1293  001E38  EC05  F012         	call	_lcd_inst	;wreg free
  1294                           	line	122
  1295                           ;lcd_portd.c: 122: break;
  1296  001E3C  D008               	goto	l249
  1297                           	line	110
  1298                           	
  1299  001E3E                     l250:		; BSR set to: ?
  1300                           
  1301  001E3E  0101               	movlb	1	; () banked
  1302  001E40  0101               	movlb	1	; () banked
  1303  001E42  5103               	movf	((lcd_init@mode))&0ffh,w
  1304  001E44  0A01               	xorlw	1 ^ 0
  1305  001E46  E0DA               	bz	l251
  1306  001E48  0A03               	xorlw	2 ^ 1
  1307  001E4A  E0E3               	bz	l252
  1308  001E4C  D7ED               	goto	l253
  1309                           
  1310                           	line	123
  1311                           	
  1312  001E4E                     l249:		; BSR set to: ?
  1313                           
  1314                           	line	125
  1315                           ;lcd_portd.c: 125: wait_ms(100);
  1316  001E4E  0E64               	movlw	low(064h)
  1317  001E50  0101               	movlb	1	; () banked
  1318  001E52  0101               	movlb	1	; () banked
  1319  001E54  6F07               	movwf	((?_wait_ms))&0ffh
  1320  001E56  0E00               	movlw	high(064h)
  1321  001E58  0101               	movlb	1	; () banked
  1322  001E5A  6F08               	movwf	((?_wait_ms+1))&0ffh
  1323  001E5C  EC79  F010         	call	_wait_ms	;wreg free
  1324                           	line	126
  1325                           ;lcd_portd.c: 126: }
  1326  001E60                     l248:
  1327                           			; BSR set to: ?
  1328                           
  1329  001E60  0012               	return
  1330                           	opt stack 0
  1331                           GLOBAL __end_of_lcd_init
  1332  001E62                     	__end_of_lcd_init:
  1333                           	FNSIZE	_lcd_init,1,1
  1334                           ; =============== function _lcd_init ends ======
                                 ======
  1335                           
  1336                           	signat	_lcd_init,4216
  1337                           	global	_lcd_out
  1338                           	global	??_lcd_out
  1339                           	global	?_lcd_out
  1340                                   psect   text7,class=CODE,space=0,reloc=2
  1341                           
  1342                           	opt lm
  1343                           	file	"C:\Users\anton\OneDrive\Desktop\Comp_Sci_
                                 Studies\spring_2026\ece_376\term_project\src\lcd
                                 _portd.c"
  1344                           	line	131
  1345  000000                     	__size_of_lcd_out	equ	__end_of_lcd_out-_lcd_out
  1346                           ;lcd_portd.c: 130: void lcd_out(long int data, u
                                 nsigned char d, unsigned char n)
  1347                           ;lcd_portd.c: 131: {
  1348                           	
  1349  0017F6                     _lcd_out:		; BSR set to: ?
  1350                           
  1351                           	opt stack 27
  1352                           	line	134
  1353                           ;lcd_portd.c: 132: unsigned char a[10], i;
  1354                           ;lcd_portd.c: 134: if(data < 0)
  1355  0017F6  0101               	movlb	1	; () banked
  1356  0017F8  0101               	movlb	1	; () banked
  1357  0017FA  AF06               	btfss	((lcd_out@data+3))&0ffh,7
  1358  0017FC  D001               	goto	u3061
  1359  0017FE  D001               	goto	u3060
  1360  001800                     u3061:
  1361  001800  D01B               	goto	l255
  1362  001802                     u3060:
  1363                           	line	136
  1364                           ;lcd_portd.c: 135: {
  1365                           ;lcd_portd.c: 136: lcd_write('-');
  1366  001802  0101               	movlb	1	; () banked
  1367  001804  6F14               	movwf	(??_lcd_out+11+0)&0ffh
  1368  001806  0E2D               	movlw	low(02Dh)
  1369  001808  0101               	movlb	1	; () banked
  1370  00180A  0101               	movlb	1	; () banked
  1371  00180C  6F15               	movwf	((?_lcd_write))&0ffh
  1372  00180E  0101               	movlb	1	; () banked
  1373  001810  5114               	movf	(??_lcd_out+11+0)&0ffh,w
  1374  001812  EC4B  F012         	call	_lcd_write	;wreg free
  1375                           	line	137
  1376                           ;lcd_portd.c: 137: data = -data;
  1377  001816  0101               	movlb	1	; () banked
  1378  001818  0101               	movlb	1	; () banked
  1379  00181A  1F06               	comf	((lcd_out@data+3))&0ffh
  1380  00181C  0101               	movlb	1	; () banked
  1381  00181E  1F05               	comf	((lcd_out@data+2))&0ffh
  1382  001820  0101               	movlb	1	; () banked
  1383  001822  1F04               	comf	((lcd_out@data+1))&0ffh
  1384  001824  0101               	movlb	1	; () banked
  1385  001826  6D03               	negf	((lcd_out@data))&0ffh
  1386  001828  0E00               	movlw	0
  1387  00182A  0101               	movlb	1	; () banked
  1388  00182C  2304               	addwfc	((lcd_out@data+1))&0ffh
  1389  00182E  0101               	movlb	1	; () banked
  1390  001830  2305               	addwfc	((lcd_out@data+2))&0ffh
  1391  001832  0101               	movlb	1	; () banked
  1392  001834  2306               	addwfc	((lcd_out@data+3))&0ffh
  1393                           	line	138
  1394                           ;lcd_portd.c: 138: }
  1395  001836  D00A               	goto	l256
  1396                           	line	139
  1397                           	
  1398  001838                     l255:		; BSR set to: ?
  1399                           
  1400                           ;lcd_portd.c: 139: else lcd_write(' ');
  1401  001838  0101               	movlb	1	; () banked
  1402  00183A  6F14               	movwf	(??_lcd_out+11+0)&0ffh
  1403  00183C  0E20               	movlw	low(020h)
  1404  00183E  0101               	movlb	1	; () banked
  1405  001840  0101               	movlb	1	; () banked
  1406  001842  6F15               	movwf	((?_lcd_write))&0ffh
  1407  001844  0101               	movlb	1	; () banked
  1408  001846  5114               	movf	(??_lcd_out+11+0)&0ffh,w
  1409  001848  EC4B  F012         	call	_lcd_write	;wreg free
  1410                           	
  1411  00184C                     l256:		; BSR set to: ?
  1412                           
  1413                           	line	141
  1414                           ;lcd_portd.c: 141: for (i=0; i<10; i++)
  1415  00184C  0101               	movlb	1	; () banked
  1416  00184E  6F14               	movwf	(??_lcd_out+11+0)&0ffh
  1417  001850  0E00               	movlw	low(0)
  1418  001852  0101               	movlb	1	; () banked
  1419  001854  0101               	movlb	1	; () banked
  1420  001856  6F09               	movwf	((lcd_out@i))&0ffh
  1421  001858  0101               	movlb	1	; () banked
  1422  00185A  5114               	movf	(??_lcd_out+11+0)&0ffh,w
  1423  00185C  0E09               	movlw	(0Ah-1)
  1424  00185E  0101               	movlb	1	; () banked
  1425  001860  0101               	movlb	1	; () banked
  1426  001862  6509               	cpfsgt	((lcd_out@i))&0ffh
  1427  001864  D001               	goto	u3071
  1428  001866  D001               	goto	u3070
  1429  001868                     u3071:
  1430  001868  D001               	goto	l257
  1431  00186A                     u3070:
  1432  00186A  D04E               	goto	l258
  1433                           	line	142
  1434                           	
  1435  00186C                     l257:		; BSR set to: ?
  1436                           
  1437                           	line	143
  1438                           ;lcd_portd.c: 142: {
  1439                           ;lcd_portd.c: 143: a[i] = data % 10;
  1440  00186C  0101               	movlb	1	; () banked
  1441  00186E  0E0A               	movlw	low(lcd_out@a)
  1442  001870  0101               	movlb	1	; () banked
  1443  001872  0101               	movlb	1	; () banked
  1444  001874  2509               	addwf	((lcd_out@i))&0ffh,w
  1445  001876  6EE9               	movwf	c:fsr0l
  1446  001878  6AEA               	clrf	1+c:fsr0l
  1447  00187A  0101               	movlb	1	; () banked
  1448  00187C  0E01               	movlw	high(lcd_out@a)
  1449  00187E  22EA               	addwfc	1+c:fsr0l
  1450  001880  0E0A               	movlw	low(0Ah)
  1451  001882  0101               	movlb	1	; () banked
  1452  001884  0101               	movlb	1	; () banked
  1453  001886  6F19               	movwf	(0+(?___almod+04h))&0ffh
  1454  001888  0E00               	movlw	high(0Ah)
  1455  00188A  0101               	movlb	1	; () banked
  1456  00188C  6F1A               	movwf	(1+(?___almod+04h))&0ffh
  1457  00188E  0E00               	movlw	low highword(0Ah)
  1458  001890  0101               	movlb	1	; () banked
  1459  001892  6F1B               	movwf	(2+(?___almod+04h))&0ffh
  1460  001894  0E00               	movlw	high highword(0Ah)
  1461  001896  0101               	movlb	1	; () banked
  1462  001898  6F1C               	movwf	(3+(?___almod+04h))&0ffh
  1463  00189A  C103  F115         	movff	(lcd_out@data),(?___almod)
  1464  00189E  C104  F116         	movff	(lcd_out@data+1),(?___almod+1)
  1465  0018A2  C105  F117         	movff	(lcd_out@data+2),(?___almod+2)
  1466  0018A6  C106  F118         	movff	(lcd_out@data+3),(?___almod+3)
  1467  0018AA  ECBF  F00C         	call	___almod	;wreg free
  1468  0018AE  0101               	movlb	1	; () banked
  1469  0018B0  0101               	movlb	1	; () banked
  1470  0018B2  5115               	movf	(0+?___almod)&0ffh,w
  1471  0018B4  6EEF               	movwf	indf0
  1472                           
  1473                           	line	144
  1474                           ;lcd_portd.c: 144: data = data / 10;
  1475  0018B6  0E0A               	movlw	low(0Ah)
  1476  0018B8  0101               	movlb	1	; () banked
  1477  0018BA  0101               	movlb	1	; () banked
  1478  0018BC  6F19               	movwf	(0+(?___aldiv+04h))&0ffh
  1479  0018BE  0E00               	movlw	high(0Ah)
  1480  0018C0  0101               	movlb	1	; () banked
  1481  0018C2  6F1A               	movwf	(1+(?___aldiv+04h))&0ffh
  1482  0018C4  0E00               	movlw	low highword(0Ah)
  1483  0018C6  0101               	movlb	1	; () banked
  1484  0018C8  6F1B               	movwf	(2+(?___aldiv+04h))&0ffh
  1485  0018CA  0E00               	movlw	high highword(0Ah)
  1486  0018CC  0101               	movlb	1	; () banked
  1487  0018CE  6F1C               	movwf	(3+(?___aldiv+04h))&0ffh
  1488  0018D0  C103  F115         	movff	(lcd_out@data),(?___aldiv)
  1489  0018D4  C104  F116         	movff	(lcd_out@data+1),(?___aldiv+1)
  1490  0018D8  C105  F117         	movff	(lcd_out@data+2),(?___aldiv+2)
  1491  0018DC  C106  F118         	movff	(lcd_out@data+3),(?___aldiv+3)
  1492  0018E0  EC19  F00B         	call	___aldiv	;wreg free
  1493  0018E4  C115  F103         	movff	0+?___aldiv,(lcd_out@data)
  1494  0018E8  C116  F104         	movff	1+?___aldiv,(lcd_out@data+1)
  1495  0018EC  C117  F105         	movff	2+?___aldiv,(lcd_out@data+2)
  1496  0018F0  C118  F106         	movff	3+?___aldiv,(lcd_out@data+3)
  1497                           	line	141
  1498  0018F4  0101               	movlb	1	; () banked
  1499  0018F6  0101               	movlb	1	; () banked
  1500  0018F8  2B09               	incf	((lcd_out@i))&0ffh
  1501  0018FA  0E09               	movlw	(0Ah-1)
  1502  0018FC  0101               	movlb	1	; () banked
  1503  0018FE  0101               	movlb	1	; () banked
  1504  001900  6509               	cpfsgt	((lcd_out@i))&0ffh
  1505  001902  D001               	goto	u3081
  1506  001904  D001               	goto	u3080
  1507  001906                     u3081:
  1508  001906  D7B2               	goto	l257
  1509  001908                     u3080:
  1510                           	
  1511  001908                     l258:		; BSR set to: ?
  1512                           
  1513                           	line	147
  1514                           ;lcd_portd.c: 145: }
  1515                           ;lcd_portd.c: 147: for (i=d; i>0; i--)
  1516  001908  C107  F109         	movff	(lcd_out@d),(lcd_out@i)
  1517  00190C  0101               	movlb	1	; () banked
  1518  00190E  0101               	movlb	1	; () banked
  1519  001910  6709               	tstfsz	((lcd_out@i))&0ffh
  1520  001912  D001               	goto	u3091
  1521  001914  D001               	goto	u3090
  1522  001916                     u3091:
  1523  001916  D001               	goto	l260
  1524  001918                     u3090:
  1525  001918  D031               	goto	l261
  1526                           	line	148
  1527                           	
  1528  00191A                     l260:		; BSR set to: ?
  1529                           
  1530                           	line	149
  1531                           ;lcd_portd.c: 148: {
  1532                           ;lcd_portd.c: 149: if (i == n) lcd_write('.');
  1533  00191A  0101               	movlb	1	; () banked
  1534  00191C  0101               	movlb	1	; () banked
  1535  00191E  5108               	movf	((lcd_out@n))&0ffh,w
  1536  001920  0101               	movlb	1	; () banked
  1537  001922  0101               	movlb	1	; () banked
  1538  001924  6309               	cpfseq	((lcd_out@i))&0ffh
  1539  001926  D001               	goto	u3101
  1540  001928  D001               	goto	u3100
  1541  00192A                     u3101:
  1542  00192A  D00A               	goto	l263
  1543  00192C                     u3100:
  1544  00192C  0101               	movlb	1	; () banked
  1545  00192E  6F14               	movwf	(??_lcd_out+11+0)&0ffh
  1546  001930  0E2E               	movlw	low(02Eh)
  1547  001932  0101               	movlb	1	; () banked
  1548  001934  0101               	movlb	1	; () banked
  1549  001936  6F15               	movwf	((?_lcd_write))&0ffh
  1550  001938  0101               	movlb	1	; () banked
  1551  00193A  5114               	movf	(??_lcd_out+11+0)&0ffh,w
  1552  00193C  EC4B  F012         	call	_lcd_write	;wreg free
  1553                           	
  1554  001940                     l263:		; BSR set to: ?
  1555                           
  1556                           	line	150
  1557                           ;lcd_portd.c: 150: lcd_write(a[i-1] + '0');
  1558  001940  C109  F114         	movff	(lcd_out@i),??_lcd_out+11+0
  1559  001944  0EFF               	movlw	-1
  1560  001946  0101               	movlb	1	; () banked
  1561  001948  2714               	addwf	(??_lcd_out+11+0)&0ffh
  1562  00194A  0101               	movlb	1	; () banked
  1563  00194C  0E0A               	movlw	low(lcd_out@a)
  1564  00194E  0101               	movlb	1	; () banked
  1565  001950  2514               	addwf	(??_lcd_out+11+0)&0ffh,w
  1566  001952  6EE9               	movwf	c:fsr0l
  1567  001954  6AEA               	clrf	1+c:fsr0l
  1568  001956  0101               	movlb	1	; () banked
  1569  001958  0E01               	movlw	high(lcd_out@a)
  1570  00195A  22EA               	addwfc	1+c:fsr0l
  1571  00195C  50EF               	movf	indf0,w
  1572  00195E  0F30               	addlw	low(030h)
  1573  001960  0101               	movlb	1	; () banked
  1574  001962  0101               	movlb	1	; () banked
  1575  001964  6F15               	movwf	((?_lcd_write))&0ffh
  1576  001966  EC4B  F012         	call	_lcd_write	;wreg free
  1577                           	line	147
  1578  00196A  0101               	movlb	1	; () banked
  1579  00196C  0101               	movlb	1	; () banked
  1580  00196E  0709               	decf	((lcd_out@i))&0ffh
  1581  001970  0101               	movlb	1	; () banked
  1582  001972  0101               	movlb	1	; () banked
  1583  001974  6709               	tstfsz	((lcd_out@i))&0ffh
  1584  001976  D001               	goto	u3111
  1585  001978  D001               	goto	u3110
  1586  00197A                     u3111:
  1587  00197A  D7CF               	goto	l260
  1588  00197C                     u3110:
  1589                           	
  1590  00197C                     l261:		; BSR set to: ?
  1591                           
  1592                           	line	152
  1593                           ;lcd_portd.c: 151: }
  1594                           ;lcd_portd.c: 152: }
  1595  00197C                     l254:
  1596                           			; BSR set to: ?
  1597                           
  1598  00197C  0012               	return
  1599                           	opt stack 0
  1600                           GLOBAL __end_of_lcd_out
  1601  00197E                     	__end_of_lcd_out:
  1602                           	FNSIZE	_lcd_out,12,6
  1603                           ; =============== function _lcd_out ends =======
                                 =====
  1604                           
  1605                           	signat	_lcd_out,12408
  1606                           	global	_init_demo_pattern
  1607                           	global	??_init_demo_pattern
  1608                           	global	?_init_demo_pattern
  1609                                   psect   text8,class=CODE,space=0,reloc=2
  1610                           
  1611                           	opt lm
  1612                           	file	"C:\Users\anton\OneDrive\Desktop\Comp_Sci_
                                 Studies\spring_2026\ece_376\term_project\src\mai
                                 n.c"
  1613                           	line	41
  1614  000000                     	__size_of_init_demo_pattern	equ	__end_of_init_d
                                 emo_pattern-_init_demo_pattern
  1615                           ;main.c: 10: volatile unsigned long g_audio_tick
                                 s = 0;
  1616                           ;main.c: 11: volatile unsigned int g_bpm = 120;
  1617                           ;main.c: 12: volatile unsigned char g_step = 0;
  1618                           ;main.c: 13: volatile unsigned long g_samples_pe
                                 r_step = 0;
  1619                           ;main.c: 14: volatile unsigned long g_step_accum
                                  = 0;
  1620                           ;main.c: 15: volatile unsigned char g_pattern_st
                                 eps = 16;
  1621                           ;main.c: 16: volatile unsigned char g_steps_per_
                                 quarter = 2;
  1622                           ;main.c: 19: volatile unsigned char g_kick_patte
                                 rn[32] = {0};
  1623                           ;main.c: 20: volatile unsigned char g_snare_patt
                                 ern[32] = {0};
  1624                           ;main.c: 21: volatile unsigned char g_hihat_patt
                                 ern[32] = {0};
  1625                           	
  1626  001F24                     _init_demo_pattern:		; BSR set to: ?
  1627                           
  1628                           	opt stack 27
  1629                           	line	44
  1630  001F24  0101               	movlb	1	; () banked
  1631  001F26  6F04               	movwf	(??_init_demo_pattern+1+0)&0ffh
  1632  001F28  0E00               	movlw	low(0)
  1633  001F2A  0101               	movlb	1	; () banked
  1634  001F2C  0101               	movlb	1	; () banked
  1635  001F2E  6F03               	movwf	((init_demo_pattern@i))&0ffh
  1636  001F30  0101               	movlb	1	; () banked
  1637  001F32  5104               	movf	(??_init_demo_pattern+1+0)&0ffh,w
  1638  001F34  0E1F               	movlw	(020h-1)
  1639  001F36  0101               	movlb	1	; () banked
  1640  001F38  0101               	movlb	1	; () banked
  1641  001F3A  6503               	cpfsgt	((init_demo_pattern@i))&0ffh
  1642  001F3C  D001               	goto	u3121
  1643  001F3E  D001               	goto	u3120
  1644  001F40                     u3121:
  1645  001F40  D001               	goto	l399
  1646  001F42                     u3120:
  1647  001F42  D028               	goto	l400
  1648                           	line	45
  1649                           	
  1650  001F44                     l399:		; BSR set to: ?
  1651                           
  1652                           	line	47
  1653                           ;main.c: 45: {
  1654                           ;main.c: 47: g_kick_pattern[i] = 0;
  1655  001F44  0E2A               	movlw	low((c:42))	;volatile
  1656  001F46  0101               	movlb	1	; () banked
  1657  001F48  0101               	movlb	1	; () banked
  1658  001F4A  2503               	addwf	((init_demo_pattern@i))&0ffh,w
  1659  001F4C  6EE9               	movwf	c:fsr0l
  1660  001F4E  6AEA               	clrf	1+c:fsr0l
  1661  001F50  0E00               	movlw	high((c:42))	;volatile
  1662  001F52  22EA               	addwfc	1+c:fsr0l
  1663  001F54  0E00               	movlw	low(0)
  1664  001F56  6EEF               	movwf	indf0
  1665                           	line	48
  1666                           ;main.c: 48: g_snare_pattern[i] = 0;
  1667  001F58  0E0A               	movlw	low((c:10))	;volatile
  1668  001F5A  0101               	movlb	1	; () banked
  1669  001F5C  0101               	movlb	1	; () banked
  1670  001F5E  2503               	addwf	((init_demo_pattern@i))&0ffh,w
  1671  001F60  6EE9               	movwf	c:fsr0l
  1672  001F62  6AEA               	clrf	1+c:fsr0l
  1673  001F64  0E00               	movlw	high((c:10))	;volatile
  1674  001F66  22EA               	addwfc	1+c:fsr0l
  1675  001F68  0E00               	movlw	low(0)
  1676  001F6A  6EEF               	movwf	indf0
  1677                           	line	49
  1678                           ;main.c: 49: g_hihat_pattern[i] = 0;
  1679  001F6C  0E4A               	movlw	low((c:74))	;volatile
  1680  001F6E  0101               	movlb	1	; () banked
  1681  001F70  0101               	movlb	1	; () banked
  1682  001F72  2503               	addwf	((init_demo_pattern@i))&0ffh,w
  1683  001F74  6EE9               	movwf	c:fsr0l
  1684  001F76  6AEA               	clrf	1+c:fsr0l
  1685  001F78  0E00               	movlw	high((c:74))	;volatile
  1686  001F7A  22EA               	addwfc	1+c:fsr0l
  1687  001F7C  0E00               	movlw	low(0)
  1688  001F7E  6EEF               	movwf	indf0
  1689                           	line	44
  1690  001F80  0101               	movlb	1	; () banked
  1691  001F82  0101               	movlb	1	; () banked
  1692  001F84  2B03               	incf	((init_demo_pattern@i))&0ffh
  1693  001F86  0E1F               	movlw	(020h-1)
  1694  001F88  0101               	movlb	1	; () banked
  1695  001F8A  0101               	movlb	1	; () banked
  1696  001F8C  6503               	cpfsgt	((init_demo_pattern@i))&0ffh
  1697  001F8E  D001               	goto	u3131
  1698  001F90  D001               	goto	u3130
  1699  001F92                     u3131:
  1700  001F92  D7D8               	goto	l399
  1701  001F94                     u3130:
  1702                           	
  1703  001F94                     l400:		; BSR set to: ?
  1704                           
  1705                           	line	53
  1706                           ;main.c: 50: }
  1707                           ;main.c: 53: g_kick_pattern[0] = 1;
  1708  001F94  0E01               	movlw	low(01h)
  1709  001F96  6E2A               	movwf	((c:42)),c	;volatile
  1710                           	line	54
  1711                           ;main.c: 54: g_kick_pattern[2] = 1;
  1712  001F98  0E01               	movlw	low(01h)
  1713  001F9A  6E2C               	movwf	(0+((c:42)+02h)),c	;volatile
  1714                           	line	55
  1715                           ;main.c: 55: g_kick_pattern[3] = 1;
  1716  001F9C  0E01               	movlw	low(01h)
  1717  001F9E  6E2D               	movwf	(0+((c:42)+03h)),c	;volatile
  1718                           	line	56
  1719                           ;main.c: 56: g_kick_pattern[8] = 1;
  1720  001FA0  0E01               	movlw	low(01h)
  1721  001FA2  6E32               	movwf	(0+((c:42)+08h)),c	;volatile
  1722                           	line	61
  1723                           ;main.c: 61: g_hihat_pattern[1] = 1;
  1724  001FA4  0E01               	movlw	low(01h)
  1725  001FA6  6E4B               	movwf	(0+((c:74)+01h)),c	;volatile
  1726                           	line	62
  1727                           ;main.c: 62: g_hihat_pattern[2] = 1;
  1728  001FA8  0E01               	movlw	low(01h)
  1729  001FAA  6E4C               	movwf	(0+((c:74)+02h)),c	;volatile
  1730                           	line	63
  1731                           ;main.c: 63: g_hihat_pattern[3] = 1;
  1732  001FAC  0E01               	movlw	low(01h)
  1733  001FAE  6E4D               	movwf	(0+((c:74)+03h)),c	;volatile
  1734                           	line	64
  1735                           ;main.c: 64: g_hihat_pattern[4] = 1;
  1736  001FB0  0E01               	movlw	low(01h)
  1737  001FB2  6E4E               	movwf	(0+((c:74)+04h)),c	;volatile
  1738                           	line	65
  1739                           ;main.c: 65: g_hihat_pattern[5] = 1;
  1740  001FB4  0E01               	movlw	low(01h)
  1741  001FB6  6E4F               	movwf	(0+((c:74)+05h)),c	;volatile
  1742                           	line	66
  1743                           ;main.c: 66: g_hihat_pattern[6] = 1;
  1744  001FB8  0E01               	movlw	low(01h)
  1745  001FBA  6E50               	movwf	(0+((c:74)+06h)),c	;volatile
  1746                           	line	67
  1747                           ;main.c: 67: g_hihat_pattern[8] = 1;
  1748  001FBC  0E01               	movlw	low(01h)
  1749  001FBE  6E52               	movwf	(0+((c:74)+08h)),c	;volatile
  1750                           	line	68
  1751                           ;main.c: 68: g_hihat_pattern[10] = 1;
  1752  001FC0  0E01               	movlw	low(01h)
  1753  001FC2  6E54               	movwf	(0+((c:74)+0Ah)),c	;volatile
  1754                           	line	69
  1755                           ;main.c: 69: g_hihat_pattern[14] = 1;
  1756  001FC4  0E01               	movlw	low(01h)
  1757  001FC6  6E58               	movwf	(0+((c:74)+0Eh)),c	;volatile
  1758                           	line	70
  1759                           ;main.c: 70: }
  1760  001FC8                     l398:
  1761                           			; BSR set to: ?
  1762                           
  1763  001FC8  0012               	return
  1764                           	opt stack 0
  1765                           GLOBAL __end_of_init_demo_pattern
  1766  001FCA                     	__end_of_init_demo_pattern:
  1767                           	FNSIZE	_init_demo_pattern,2,0
  1768                           ; =============== function _init_demo_pattern en
                                 ds ============
  1769                           
  1770                           	signat	_init_demo_pattern,88
  1771                           	global	___aldiv
  1772                           	global	??___aldiv
  1773                           	global	?___aldiv
  1774                                   psect   text9,class=CODE,space=0,reloc=2
  1775                           
  1776                           	opt lm
  1777                           	file	"C:\Program Files (x86)\HI-TECH Software\P
                                 ICC-18\PRO\9.63\sources\aldiv.c"
  1778                           	line	5
  1779  000000                     	__size_of___aldiv	equ	__end_of___aldiv-___aldiv
  1780                           	
  1781  001632                     ___aldiv:		; BSR set to: ?
  1782                           
  1783                           	opt stack 26
  1784                           	line	9
  1785  001632  0101               	movlb	1	; () banked
  1786  001634  6F23               	movwf	(??___aldiv+6+0)&0ffh
  1787  001636  0E00               	movlw	low(0)
  1788  001638  0101               	movlb	1	; () banked
  1789  00163A  0101               	movlb	1	; () banked
  1790  00163C  6F1E               	movwf	((___aldiv@sign))&0ffh
  1791  00163E  0101               	movlb	1	; () banked
  1792  001640  5123               	movf	(??___aldiv+6+0)&0ffh,w
  1793                           	line	10
  1794  001642  0101               	movlb	1	; () banked
  1795  001644  0101               	movlb	1	; () banked
  1796  001646  AF1C               	btfss	((___aldiv@divisor+3))&0ffh,7
  1797  001648  D001               	goto	u3141
  1798  00164A  D001               	goto	u3140
  1799  00164C                     u3141:
  1800  00164C  D018               	goto	l472
  1801  00164E                     u3140:
  1802                           	line	11
  1803  00164E  0101               	movlb	1	; () banked
  1804  001650  0101               	movlb	1	; () banked
  1805  001652  1F1C               	comf	((___aldiv@divisor+3))&0ffh
  1806  001654  0101               	movlb	1	; () banked
  1807  001656  1F1B               	comf	((___aldiv@divisor+2))&0ffh
  1808  001658  0101               	movlb	1	; () banked
  1809  00165A  1F1A               	comf	((___aldiv@divisor+1))&0ffh
  1810  00165C  0101               	movlb	1	; () banked
  1811  00165E  6D19               	negf	((___aldiv@divisor))&0ffh
  1812  001660  0E00               	movlw	0
  1813  001662  0101               	movlb	1	; () banked
  1814  001664  231A               	addwfc	((___aldiv@divisor+1))&0ffh
  1815  001666  0101               	movlb	1	; () banked
  1816  001668  231B               	addwfc	((___aldiv@divisor+2))&0ffh
  1817  00166A  0101               	movlb	1	; () banked
  1818  00166C  231C               	addwfc	((___aldiv@divisor+3))&0ffh
  1819                           	line	12
  1820  00166E  0101               	movlb	1	; () banked
  1821  001670  6F23               	movwf	(??___aldiv+6+0)&0ffh
  1822  001672  0E01               	movlw	low(01h)
  1823  001674  0101               	movlb	1	; () banked
  1824  001676  0101               	movlb	1	; () banked
  1825  001678  6F1E               	movwf	((___aldiv@sign))&0ffh
  1826  00167A  0101               	movlb	1	; () banked
  1827  00167C  5123               	movf	(??___aldiv+6+0)&0ffh,w
  1828                           	line	13
  1829                           	
  1830  00167E                     l472:		; BSR set to: ?
  1831                           
  1832                           	line	14
  1833  00167E  0101               	movlb	1	; () banked
  1834  001680  0101               	movlb	1	; () banked
  1835  001682  AF18               	btfss	((___aldiv@dividend+3))&0ffh,7
  1836  001684  D001               	goto	u3151
  1837  001686  D001               	goto	u3150
  1838  001688                     u3151:
  1839  001688  D014               	goto	l473
  1840  00168A                     u3150:
  1841                           	line	15
  1842  00168A  0101               	movlb	1	; () banked
  1843  00168C  0101               	movlb	1	; () banked
  1844  00168E  1F18               	comf	((___aldiv@dividend+3))&0ffh
  1845  001690  0101               	movlb	1	; () banked
  1846  001692  1F17               	comf	((___aldiv@dividend+2))&0ffh
  1847  001694  0101               	movlb	1	; () banked
  1848  001696  1F16               	comf	((___aldiv@dividend+1))&0ffh
  1849  001698  0101               	movlb	1	; () banked
  1850  00169A  6D15               	negf	((___aldiv@dividend))&0ffh
  1851  00169C  0E00               	movlw	0
  1852  00169E  0101               	movlb	1	; () banked
  1853  0016A0  2316               	addwfc	((___aldiv@dividend+1))&0ffh
  1854  0016A2  0101               	movlb	1	; () banked
  1855  0016A4  2317               	addwfc	((___aldiv@dividend+2))&0ffh
  1856  0016A6  0101               	movlb	1	; () banked
  1857  0016A8  2318               	addwfc	((___aldiv@dividend+3))&0ffh
  1858                           	line	16
  1859  0016AA  0E01               	movlw	(01h)&0ffh
  1860  0016AC  0101               	movlb	1	; () banked
  1861  0016AE  0101               	movlb	1	; () banked
  1862  0016B0  1B1E               	xorwf	((___aldiv@sign))&0ffh
  1863                           	line	17
  1864                           	
  1865  0016B2                     l473:		; BSR set to: ?
  1866                           
  1867                           	line	18
  1868  0016B2  0E00               	movlw	low(0)
  1869  0016B4  0101               	movlb	1	; () banked
  1870  0016B6  0101               	movlb	1	; () banked
  1871  0016B8  6F1F               	movwf	((___aldiv@quotient))&0ffh
  1872  0016BA  0E00               	movlw	high(0)
  1873  0016BC  0101               	movlb	1	; () banked
  1874  0016BE  6F20               	movwf	((___aldiv@quotient+1))&0ffh
  1875  0016C0  0E00               	movlw	low highword(0)
  1876  0016C2  0101               	movlb	1	; () banked
  1877  0016C4  6F21               	movwf	((___aldiv@quotient+2))&0ffh
  1878  0016C6  0E00               	movlw	high highword(0)
  1879  0016C8  0101               	movlb	1	; () banked
  1880  0016CA  6F22               	movwf	((___aldiv@quotient+3))&0ffh
  1881                           	line	19
  1882  0016CC  0101               	movlb	1	; () banked
  1883  0016CE  511C               	movf	((___aldiv@divisor+3))&0ffh,w
  1884  0016D0  1119               	iorwf ((___aldiv@divisor))&0ffh,w
  1885  0016D2  111A               	iorwf ((___aldiv@divisor+1))&0ffh,w
  1886  0016D4  111B               	iorwf ((___aldiv@divisor+2))&0ffh,w
  1887                           
  1888  0016D6  B4D8               	btfsc	status,2
  1889  0016D8  D001               	goto	u3161
  1890  0016DA  D001               	goto	u3160
  1891  0016DC                     u3161:
  1892  0016DC  D06B               	goto	l474
  1893  0016DE                     u3160:
  1894                           	line	20
  1895  0016DE  0101               	movlb	1	; () banked
  1896  0016E0  6F23               	movwf	(??___aldiv+6+0)&0ffh
  1897  0016E2  0E01               	movlw	low(01h)
  1898  0016E4  0101               	movlb	1	; () banked
  1899  0016E6  0101               	movlb	1	; () banked
  1900  0016E8  6F1D               	movwf	((___aldiv@counter))&0ffh
  1901  0016EA  0101               	movlb	1	; () banked
  1902  0016EC  5123               	movf	(??___aldiv+6+0)&0ffh,w
  1903                           	line	21
  1904  0016EE  D00D               	goto	l475
  1905                           	
  1906  0016F0                     l476:		; BSR set to: ?
  1907                           
  1908                           	line	22
  1909  0016F0  0101               	movlb	1	; () banked
  1910  0016F2  90D8               	bcf	status,0
  1911  0016F4  0101               	movlb	1	; () banked
  1912  0016F6  3719               	rlcf	((___aldiv@divisor))&0ffh
  1913  0016F8  0101               	movlb	1	; () banked
  1914  0016FA  371A               	rlcf	((___aldiv@divisor+1))&0ffh
  1915  0016FC  0101               	movlb	1	; () banked
  1916  0016FE  371B               	rlcf	((___aldiv@divisor+2))&0ffh
  1917  001700  0101               	movlb	1	; () banked
  1918  001702  371C               	rlcf	((___aldiv@divisor+3))&0ffh
  1919                           	line	23
  1920  001704  0101               	movlb	1	; () banked
  1921  001706  0101               	movlb	1	; () banked
  1922  001708  2B1D               	incf	((___aldiv@counter))&0ffh
  1923                           	line	24
  1924                           	
  1925  00170A                     l475:		; BSR set to: ?
  1926                           
  1927                           	line	21
  1928  00170A  0101               	movlb	1	; () banked
  1929                           	
  1930  00170C  0101               	movlb	1	; () banked
  1931  00170E  AF1C               	btfss	((___aldiv@divisor+3))&0ffh,(31)&7
  1932  001710  D001               	goto	u3171
  1933  001712  D001               	goto	u3170
  1934  001714                     u3171:
  1935  001714  D7ED               	goto	l476
  1936  001716                     u3170:
  1937                           	
  1938  001716                     l477:		; BSR set to: ?
  1939                           
  1940                           	line	25
  1941                           	
  1942  001716                     l480:		; BSR set to: ?
  1943                           
  1944                           	line	26
  1945  001716  0101               	movlb	1	; () banked
  1946  001718  90D8               	bcf	status,0
  1947  00171A  0101               	movlb	1	; () banked
  1948  00171C  371F               	rlcf	((___aldiv@quotient))&0ffh
  1949  00171E  0101               	movlb	1	; () banked
  1950  001720  3720               	rlcf	((___aldiv@quotient+1))&0ffh
  1951  001722  0101               	movlb	1	; () banked
  1952  001724  3721               	rlcf	((___aldiv@quotient+2))&0ffh
  1953  001726  0101               	movlb	1	; () banked
  1954  001728  3722               	rlcf	((___aldiv@quotient+3))&0ffh
  1955                           	line	27
  1956  00172A  0101               	movlb	1	; () banked
  1957  00172C  0101               	movlb	1	; () banked
  1958  00172E  5119               	movf	((___aldiv@divisor))&0ffh,w
  1959  001730  0101               	movlb	1	; () banked
  1960  001732  0101               	movlb	1	; () banked
  1961  001734  5D15               	subwf	((___aldiv@dividend))&0ffh,w
  1962  001736  0101               	movlb	1	; () banked
  1963  001738  0101               	movlb	1	; () banked
  1964  00173A  511A               	movf	((___aldiv@divisor+1))&0ffh,w
  1965  00173C  0101               	movlb	1	; () banked
  1966  00173E  0101               	movlb	1	; () banked
  1967  001740  5916               	subwfb	((___aldiv@dividend+1))&0ffh,w
  1968  001742  0101               	movlb	1	; () banked
  1969  001744  0101               	movlb	1	; () banked
  1970  001746  511B               	movf	((___aldiv@divisor+2))&0ffh,w
  1971  001748  0101               	movlb	1	; () banked
  1972  00174A  0101               	movlb	1	; () banked
  1973  00174C  5917               	subwfb	((___aldiv@dividend+2))&0ffh,w
  1974  00174E  0101               	movlb	1	; () banked
  1975  001750  0101               	movlb	1	; () banked
  1976  001752  511C               	movf	((___aldiv@divisor+3))&0ffh,w
  1977  001754  0101               	movlb	1	; () banked
  1978  001756  0101               	movlb	1	; () banked
  1979  001758  5918               	subwfb	((___aldiv@dividend+3))&0ffh,w
  1980  00175A  A0D8               	btfss	status,0
  1981  00175C  D001               	goto	u3181
  1982  00175E  D001               	goto	u3180
  1983  001760                     u3181:
  1984  001760  D01B               	goto	l481
  1985  001762                     u3180:
  1986                           	line	28
  1987  001762  0101               	movlb	1	; () banked
  1988  001764  0101               	movlb	1	; () banked
  1989  001766  5119               	movf	((___aldiv@divisor))&0ffh,w
  1990  001768  0101               	movlb	1	; () banked
  1991  00176A  0101               	movlb	1	; () banked
  1992  00176C  5F15               	subwf	((___aldiv@dividend))&0ffh
  1993  00176E  0101               	movlb	1	; () banked
  1994  001770  0101               	movlb	1	; () banked
  1995  001772  511A               	movf	((___aldiv@divisor+1))&0ffh,w
  1996  001774  0101               	movlb	1	; () banked
  1997  001776  0101               	movlb	1	; () banked
  1998  001778  5B16               	subwfb	((___aldiv@dividend+1))&0ffh
  1999  00177A  0101               	movlb	1	; () banked
  2000  00177C  0101               	movlb	1	; () banked
  2001  00177E  511B               	movf	((___aldiv@divisor+2))&0ffh,w
  2002  001780  0101               	movlb	1	; () banked
  2003  001782  0101               	movlb	1	; () banked
  2004  001784  5B17               	subwfb	((___aldiv@dividend+2))&0ffh
  2005  001786  0101               	movlb	1	; () banked
  2006  001788  0101               	movlb	1	; () banked
  2007  00178A  511C               	movf	((___aldiv@divisor+3))&0ffh,w
  2008  00178C  0101               	movlb	1	; () banked
  2009  00178E  0101               	movlb	1	; () banked
  2010  001790  5B18               	subwfb	((___aldiv@dividend+3))&0ffh
  2011                           	line	29
  2012  001792  0101               	movlb	1	; () banked
  2013  001794  0101               	movlb	1	; () banked
  2014  001796  811F               	bsf	(0+(0/8)+(___aldiv@quotient))&0ffh,(0)&7
  2015                           	line	30
  2016                           	
  2017  001798                     l481:		; BSR set to: ?
  2018                           
  2019                           	line	31
  2020  001798  0101               	movlb	1	; () banked
  2021  00179A  90D8               	bcf	status,0
  2022  00179C  0101               	movlb	1	; () banked
  2023  00179E  331C               	rrcf	((___aldiv@divisor+3))&0ffh
  2024  0017A0  0101               	movlb	1	; () banked
  2025  0017A2  331B               	rrcf	((___aldiv@divisor+2))&0ffh
  2026  0017A4  0101               	movlb	1	; () banked
  2027  0017A6  331A               	rrcf	((___aldiv@divisor+1))&0ffh
  2028  0017A8  0101               	movlb	1	; () banked
  2029  0017AA  3319               	rrcf	((___aldiv@divisor))&0ffh
  2030                           	line	32
  2031  0017AC  0101               	movlb	1	; () banked
  2032  0017AE  0101               	movlb	1	; () banked
  2033  0017B0  2F1D               	decfsz	((___aldiv@counter))&0ffh
  2034                           	
  2035  0017B2  D7B1               	goto	l480
  2036                           	
  2037  0017B4                     l479:		; BSR set to: ?
  2038                           
  2039                           	line	33
  2040                           	
  2041  0017B4                     l474:		; BSR set to: ?
  2042                           
  2043                           	line	34
  2044  0017B4  0101               	movlb	1	; () banked
  2045  0017B6  0101               	movlb	1	; () banked
  2046  0017B8  511E               	movf	((___aldiv@sign))&0ffh,w
  2047  0017BA  B4D8               	btfsc	status,2
  2048  0017BC  D001               	goto	u3191
  2049  0017BE  D001               	goto	u3190
  2050  0017C0                     u3191:
  2051  0017C0  D010               	goto	l482
  2052  0017C2                     u3190:
  2053                           	line	35
  2054  0017C2  0101               	movlb	1	; () banked
  2055  0017C4  0101               	movlb	1	; () banked
  2056  0017C6  1F22               	comf	((___aldiv@quotient+3))&0ffh
  2057  0017C8  0101               	movlb	1	; () banked
  2058  0017CA  1F21               	comf	((___aldiv@quotient+2))&0ffh
  2059  0017CC  0101               	movlb	1	; () banked
  2060  0017CE  1F20               	comf	((___aldiv@quotient+1))&0ffh
  2061  0017D0  0101               	movlb	1	; () banked
  2062  0017D2  6D1F               	negf	((___aldiv@quotient))&0ffh
  2063  0017D4  0E00               	movlw	0
  2064  0017D6  0101               	movlb	1	; () banked
  2065  0017D8  2320               	addwfc	((___aldiv@quotient+1))&0ffh
  2066  0017DA  0101               	movlb	1	; () banked
  2067  0017DC  2321               	addwfc	((___aldiv@quotient+2))&0ffh
  2068  0017DE  0101               	movlb	1	; () banked
  2069  0017E0  2322               	addwfc	((___aldiv@quotient+3))&0ffh
  2070                           	
  2071  0017E2                     l482:		; BSR set to: ?
  2072                           
  2073                           	line	36
  2074  0017E2  C11F  F115         	movff	(___aldiv@quotient),(?___aldiv)
  2075  0017E6  C120  F116         	movff	(___aldiv@quotient+1),(?___aldiv+1)
  2076  0017EA  C121  F117         	movff	(___aldiv@quotient+2),(?___aldiv+2)
  2077  0017EE  C122  F118         	movff	(___aldiv@quotient+3),(?___aldiv+3)
  2078  0017F2  D000               	goto	l471
  2079                           	line	37
  2080  0017F4                     l471:
  2081                           			; BSR set to: ?
  2082                           
  2083  0017F4  0012               	return
  2084                           	opt stack 0
  2085                           GLOBAL __end_of___aldiv
  2086  0017F6                     	__end_of___aldiv:
  2087                           	FNSIZE	___aldiv,7,8
  2088                           ; =============== function ___aldiv ends =======
                                 =====
  2089                           
  2090                           	signat	___aldiv,8316
  2091                           	global	_timer0_load
  2092                           	global	??_timer0_load
  2093                           	global	?_timer0_load
  2094                                   psect   text10,class=CODE,space=0,reloc=
                                 2
  2095                           
  2096                           	opt lm
  2097                           	file	"C:\Users\anton\OneDrive\Desktop\Comp_Sci_
                                 Studies\spring_2026\ece_376\term_project\src\mai
                                 n.c"
  2098                           	line	123
  2099  000000                     	__size_of_timer0_load	equ	__end_of_timer0_load-
                                 _timer0_load
  2100                           ;main.c: 122: static void timer0_load(void)
  2101                           ;main.c: 123: {
  2102                           	
  2103  0025A6                     _timer0_load:		; BSR set to: ?
  2104                           
  2105                           	opt stack 26
  2106                           	line	124
  2107  0025A6  0EFE               	movlw	low(0FEh)
  2108  0025A8  6ED7               	movwf	((c:4055)),c	;volatile
  2109                           	line	125
  2110                           ;main.c: 125: TMR0L = (unsigned char)((65536UL -
                                  ((40000000UL / 4UL) / 25000UL)) & 0xFF);
  2111  0025AA  0E70               	movlw	low(070h)
  2112  0025AC  6ED6               	movwf	((c:4054)),c	;volatile
  2113                           	line	126
  2114                           ;main.c: 126: }
  2115  0025AE                     l408:
  2116                           			; BSR set to: ?
  2117                           
  2118  0025AE  0012               	return
  2119                           	opt stack 0
  2120                           GLOBAL __end_of_timer0_load
  2121  0025B0                     	__end_of_timer0_load:
  2122                           	FNSIZE	_timer0_load,0,0
  2123                           ; =============== function _timer0_load ends ===
                                 =========
  2124                           
  2125                           	signat	_timer0_load,88
  2126                           	global	___lldiv
  2127                           	global	??___lldiv
  2128                           	global	?___lldiv
  2129                                   psect   text11,class=CODE,space=0,reloc=
                                 2
  2130                           
  2131                           	opt lm
  2132                           	file	"C:\Program Files (x86)\HI-TECH Software\P
                                 ICC-18\PRO\9.63\sources\lldiv.c"
  2133                           	line	5
  2134  000000                     	__size_of___lldiv	equ	__end_of___lldiv-___lldiv
  2135                           	
  2136  001C7A                     ___lldiv:		; BSR set to: ?
  2137                           
  2138                           	opt stack 26
  2139                           	line	9
  2140  001C7A  0E00               	movlw	low(0)
  2141  001C7C  0101               	movlb	1	; () banked
  2142  001C7E  0101               	movlb	1	; () banked
  2143  001C80  6F10               	movwf	((___lldiv@quotient))&0ffh
  2144  001C82  0E00               	movlw	high(0)
  2145  001C84  0101               	movlb	1	; () banked
  2146  001C86  6F11               	movwf	((___lldiv@quotient+1))&0ffh
  2147  001C88  0E00               	movlw	low highword(0)
  2148  001C8A  0101               	movlb	1	; () banked
  2149  001C8C  6F12               	movwf	((___lldiv@quotient+2))&0ffh
  2150  001C8E  0E00               	movlw	high highword(0)
  2151  001C90  0101               	movlb	1	; () banked
  2152  001C92  6F13               	movwf	((___lldiv@quotient+3))&0ffh
  2153                           	line	10
  2154  001C94  0101               	movlb	1	; () banked
  2155  001C96  510E               	movf	((___lldiv@divisor+3))&0ffh,w
  2156  001C98  110B               	iorwf ((___lldiv@divisor))&0ffh,w
  2157  001C9A  110C               	iorwf ((___lldiv@divisor+1))&0ffh,w
  2158  001C9C  110D               	iorwf ((___lldiv@divisor+2))&0ffh,w
  2159                           
  2160  001C9E  B4D8               	btfsc	status,2
  2161  001CA0  D001               	goto	u3201
  2162  001CA2  D001               	goto	u3200
  2163  001CA4                     u3201:
  2164  001CA4  D06B               	goto	l726
  2165  001CA6                     u3200:
  2166                           	line	11
  2167  001CA6  0101               	movlb	1	; () banked
  2168  001CA8  6F14               	movwf	(??___lldiv+5+0)&0ffh
  2169  001CAA  0E01               	movlw	low(01h)
  2170  001CAC  0101               	movlb	1	; () banked
  2171  001CAE  0101               	movlb	1	; () banked
  2172  001CB0  6F0F               	movwf	((___lldiv@counter))&0ffh
  2173  001CB2  0101               	movlb	1	; () banked
  2174  001CB4  5114               	movf	(??___lldiv+5+0)&0ffh,w
  2175                           	line	12
  2176  001CB6  D00D               	goto	l727
  2177                           	
  2178  001CB8                     l728:		; BSR set to: ?
  2179                           
  2180                           	line	13
  2181  001CB8  0101               	movlb	1	; () banked
  2182  001CBA  90D8               	bcf	status,0
  2183  001CBC  0101               	movlb	1	; () banked
  2184  001CBE  370B               	rlcf	((___lldiv@divisor))&0ffh
  2185  001CC0  0101               	movlb	1	; () banked
  2186  001CC2  370C               	rlcf	((___lldiv@divisor+1))&0ffh
  2187  001CC4  0101               	movlb	1	; () banked
  2188  001CC6  370D               	rlcf	((___lldiv@divisor+2))&0ffh
  2189  001CC8  0101               	movlb	1	; () banked
  2190  001CCA  370E               	rlcf	((___lldiv@divisor+3))&0ffh
  2191                           	line	14
  2192  001CCC  0101               	movlb	1	; () banked
  2193  001CCE  0101               	movlb	1	; () banked
  2194  001CD0  2B0F               	incf	((___lldiv@counter))&0ffh
  2195                           	line	15
  2196                           	
  2197  001CD2                     l727:		; BSR set to: ?
  2198                           
  2199                           	line	12
  2200  001CD2  0101               	movlb	1	; () banked
  2201                           	
  2202  001CD4  0101               	movlb	1	; () banked
  2203  001CD6  AF0E               	btfss	((___lldiv@divisor+3))&0ffh,(31)&7
  2204  001CD8  D001               	goto	u3211
  2205  001CDA  D001               	goto	u3210
  2206  001CDC                     u3211:
  2207  001CDC  D7ED               	goto	l728
  2208  001CDE                     u3210:
  2209                           	
  2210  001CDE                     l729:		; BSR set to: ?
  2211                           
  2212                           	line	16
  2213                           	
  2214  001CDE                     l732:		; BSR set to: ?
  2215                           
  2216                           	line	17
  2217  001CDE  0101               	movlb	1	; () banked
  2218  001CE0  90D8               	bcf	status,0
  2219  001CE2  0101               	movlb	1	; () banked
  2220  001CE4  3710               	rlcf	((___lldiv@quotient))&0ffh
  2221  001CE6  0101               	movlb	1	; () banked
  2222  001CE8  3711               	rlcf	((___lldiv@quotient+1))&0ffh
  2223  001CEA  0101               	movlb	1	; () banked
  2224  001CEC  3712               	rlcf	((___lldiv@quotient+2))&0ffh
  2225  001CEE  0101               	movlb	1	; () banked
  2226  001CF0  3713               	rlcf	((___lldiv@quotient+3))&0ffh
  2227                           	line	18
  2228  001CF2  0101               	movlb	1	; () banked
  2229  001CF4  0101               	movlb	1	; () banked
  2230  001CF6  510B               	movf	((___lldiv@divisor))&0ffh,w
  2231  001CF8  0101               	movlb	1	; () banked
  2232  001CFA  0101               	movlb	1	; () banked
  2233  001CFC  5D07               	subwf	((___lldiv@dividend))&0ffh,w
  2234  001CFE  0101               	movlb	1	; () banked
  2235  001D00  0101               	movlb	1	; () banked
  2236  001D02  510C               	movf	((___lldiv@divisor+1))&0ffh,w
  2237  001D04  0101               	movlb	1	; () banked
  2238  001D06  0101               	movlb	1	; () banked
  2239  001D08  5908               	subwfb	((___lldiv@dividend+1))&0ffh,w
  2240  001D0A  0101               	movlb	1	; () banked
  2241  001D0C  0101               	movlb	1	; () banked
  2242  001D0E  510D               	movf	((___lldiv@divisor+2))&0ffh,w
  2243  001D10  0101               	movlb	1	; () banked
  2244  001D12  0101               	movlb	1	; () banked
  2245  001D14  5909               	subwfb	((___lldiv@dividend+2))&0ffh,w
  2246  001D16  0101               	movlb	1	; () banked
  2247  001D18  0101               	movlb	1	; () banked
  2248  001D1A  510E               	movf	((___lldiv@divisor+3))&0ffh,w
  2249  001D1C  0101               	movlb	1	; () banked
  2250  001D1E  0101               	movlb	1	; () banked
  2251  001D20  590A               	subwfb	((___lldiv@dividend+3))&0ffh,w
  2252  001D22  A0D8               	btfss	status,0
  2253  001D24  D001               	goto	u3221
  2254  001D26  D001               	goto	u3220
  2255  001D28                     u3221:
  2256  001D28  D01B               	goto	l733
  2257  001D2A                     u3220:
  2258                           	line	19
  2259  001D2A  0101               	movlb	1	; () banked
  2260  001D2C  0101               	movlb	1	; () banked
  2261  001D2E  510B               	movf	((___lldiv@divisor))&0ffh,w
  2262  001D30  0101               	movlb	1	; () banked
  2263  001D32  0101               	movlb	1	; () banked
  2264  001D34  5F07               	subwf	((___lldiv@dividend))&0ffh
  2265  001D36  0101               	movlb	1	; () banked
  2266  001D38  0101               	movlb	1	; () banked
  2267  001D3A  510C               	movf	((___lldiv@divisor+1))&0ffh,w
  2268  001D3C  0101               	movlb	1	; () banked
  2269  001D3E  0101               	movlb	1	; () banked
  2270  001D40  5B08               	subwfb	((___lldiv@dividend+1))&0ffh
  2271  001D42  0101               	movlb	1	; () banked
  2272  001D44  0101               	movlb	1	; () banked
  2273  001D46  510D               	movf	((___lldiv@divisor+2))&0ffh,w
  2274  001D48  0101               	movlb	1	; () banked
  2275  001D4A  0101               	movlb	1	; () banked
  2276  001D4C  5B09               	subwfb	((___lldiv@dividend+2))&0ffh
  2277  001D4E  0101               	movlb	1	; () banked
  2278  001D50  0101               	movlb	1	; () banked
  2279  001D52  510E               	movf	((___lldiv@divisor+3))&0ffh,w
  2280  001D54  0101               	movlb	1	; () banked
  2281  001D56  0101               	movlb	1	; () banked
  2282  001D58  5B0A               	subwfb	((___lldiv@dividend+3))&0ffh
  2283                           	line	20
  2284  001D5A  0101               	movlb	1	; () banked
  2285  001D5C  0101               	movlb	1	; () banked
  2286  001D5E  8110               	bsf	(0+(0/8)+(___lldiv@quotient))&0ffh,(0)&7
  2287                           	line	21
  2288                           	
  2289  001D60                     l733:		; BSR set to: ?
  2290                           
  2291                           	line	22
  2292  001D60  0101               	movlb	1	; () banked
  2293  001D62  90D8               	bcf	status,0
  2294  001D64  0101               	movlb	1	; () banked
  2295  001D66  330E               	rrcf	((___lldiv@divisor+3))&0ffh
  2296  001D68  0101               	movlb	1	; () banked
  2297  001D6A  330D               	rrcf	((___lldiv@divisor+2))&0ffh
  2298  001D6C  0101               	movlb	1	; () banked
  2299  001D6E  330C               	rrcf	((___lldiv@divisor+1))&0ffh
  2300  001D70  0101               	movlb	1	; () banked
  2301  001D72  330B               	rrcf	((___lldiv@divisor))&0ffh
  2302                           	line	23
  2303  001D74  0101               	movlb	1	; () banked
  2304  001D76  0101               	movlb	1	; () banked
  2305  001D78  2F0F               	decfsz	((___lldiv@counter))&0ffh
  2306                           	
  2307  001D7A  D7B1               	goto	l732
  2308                           	
  2309  001D7C                     l731:		; BSR set to: ?
  2310                           
  2311                           	line	24
  2312                           	
  2313  001D7C                     l726:		; BSR set to: ?
  2314                           
  2315                           	line	25
  2316  001D7C  C110  F107         	movff	(___lldiv@quotient),(?___lldiv)
  2317  001D80  C111  F108         	movff	(___lldiv@quotient+1),(?___lldiv+1)
  2318  001D84  C112  F109         	movff	(___lldiv@quotient+2),(?___lldiv+2)
  2319  001D88  C113  F10A         	movff	(___lldiv@quotient+3),(?___lldiv+3)
  2320  001D8C  D000               	goto	l725
  2321                           	line	26
  2322  001D8E                     l725:
  2323                           			; BSR set to: ?
  2324                           
  2325  001D8E  0012               	return
  2326                           	opt stack 0
  2327                           GLOBAL __end_of___lldiv
  2328  001D90                     	__end_of___lldiv:
  2329                           	FNSIZE	___lldiv,6,8
  2330                           ; =============== function ___lldiv ends =======
                                 =====
  2331                           
  2332                           	signat	___lldiv,8316
  2333                           	global	___almod
  2334                           	global	??___almod
  2335                           	global	?___almod
  2336                                   psect   text12,class=CODE,space=0,reloc=
                                 2
  2337                           
  2338                           	opt lm
  2339                           	file	"C:\Program Files (x86)\HI-TECH Software\P
                                 ICC-18\PRO\9.63\sources\almod.c"
  2340                           	line	5
  2341  000000                     	__size_of___almod	equ	__end_of___almod-___almod
  2342                           	
  2343  00197E                     ___almod:		; BSR set to: ?
  2344                           
  2345                           	opt stack 26
  2346                           	line	8
  2347  00197E  0101               	movlb	1	; () banked
  2348  001980  6F1F               	movwf	(??___almod+2+0)&0ffh
  2349  001982  0E00               	movlw	low(0)
  2350  001984  0101               	movlb	1	; () banked
  2351  001986  0101               	movlb	1	; () banked
  2352  001988  6F1D               	movwf	((___almod@sign))&0ffh
  2353  00198A  0101               	movlb	1	; () banked
  2354  00198C  511F               	movf	(??___almod+2+0)&0ffh,w
  2355                           	line	9
  2356  00198E  0101               	movlb	1	; () banked
  2357  001990  0101               	movlb	1	; () banked
  2358  001992  AF18               	btfss	((___almod@dividend+3))&0ffh,7
  2359  001994  D001               	goto	u3231
  2360  001996  D001               	goto	u3230
  2361  001998                     u3231:
  2362  001998  D018               	goto	l484
  2363  00199A                     u3230:
  2364                           	line	10
  2365  00199A  0101               	movlb	1	; () banked
  2366  00199C  0101               	movlb	1	; () banked
  2367  00199E  1F18               	comf	((___almod@dividend+3))&0ffh
  2368  0019A0  0101               	movlb	1	; () banked
  2369  0019A2  1F17               	comf	((___almod@dividend+2))&0ffh
  2370  0019A4  0101               	movlb	1	; () banked
  2371  0019A6  1F16               	comf	((___almod@dividend+1))&0ffh
  2372  0019A8  0101               	movlb	1	; () banked
  2373  0019AA  6D15               	negf	((___almod@dividend))&0ffh
  2374  0019AC  0E00               	movlw	0
  2375  0019AE  0101               	movlb	1	; () banked
  2376  0019B0  2316               	addwfc	((___almod@dividend+1))&0ffh
  2377  0019B2  0101               	movlb	1	; () banked
  2378  0019B4  2317               	addwfc	((___almod@dividend+2))&0ffh
  2379  0019B6  0101               	movlb	1	; () banked
  2380  0019B8  2318               	addwfc	((___almod@dividend+3))&0ffh
  2381                           	line	11
  2382  0019BA  0101               	movlb	1	; () banked
  2383  0019BC  6F1F               	movwf	(??___almod+2+0)&0ffh
  2384  0019BE  0E01               	movlw	low(01h)
  2385  0019C0  0101               	movlb	1	; () banked
  2386  0019C2  0101               	movlb	1	; () banked
  2387  0019C4  6F1D               	movwf	((___almod@sign))&0ffh
  2388  0019C6  0101               	movlb	1	; () banked
  2389  0019C8  511F               	movf	(??___almod+2+0)&0ffh,w
  2390                           	line	12
  2391                           	
  2392  0019CA                     l484:		; BSR set to: ?
  2393                           
  2394                           	line	13
  2395  0019CA  0101               	movlb	1	; () banked
  2396  0019CC  0101               	movlb	1	; () banked
  2397  0019CE  AF1C               	btfss	((___almod@divisor+3))&0ffh,7
  2398  0019D0  D001               	goto	u3241
  2399  0019D2  D001               	goto	u3240
  2400  0019D4                     u3241:
  2401  0019D4  D010               	goto	l485
  2402  0019D6                     u3240:
  2403                           	line	14
  2404  0019D6  0101               	movlb	1	; () banked
  2405  0019D8  0101               	movlb	1	; () banked
  2406  0019DA  1F1C               	comf	((___almod@divisor+3))&0ffh
  2407  0019DC  0101               	movlb	1	; () banked
  2408  0019DE  1F1B               	comf	((___almod@divisor+2))&0ffh
  2409  0019E0  0101               	movlb	1	; () banked
  2410  0019E2  1F1A               	comf	((___almod@divisor+1))&0ffh
  2411  0019E4  0101               	movlb	1	; () banked
  2412  0019E6  6D19               	negf	((___almod@divisor))&0ffh
  2413  0019E8  0E00               	movlw	0
  2414  0019EA  0101               	movlb	1	; () banked
  2415  0019EC  231A               	addwfc	((___almod@divisor+1))&0ffh
  2416  0019EE  0101               	movlb	1	; () banked
  2417  0019F0  231B               	addwfc	((___almod@divisor+2))&0ffh
  2418  0019F2  0101               	movlb	1	; () banked
  2419  0019F4  231C               	addwfc	((___almod@divisor+3))&0ffh
  2420                           	
  2421  0019F6                     l485:		; BSR set to: ?
  2422                           
  2423                           	line	15
  2424  0019F6  0101               	movlb	1	; () banked
  2425  0019F8  511C               	movf	((___almod@divisor+3))&0ffh,w
  2426  0019FA  1119               	iorwf ((___almod@divisor))&0ffh,w
  2427  0019FC  111A               	iorwf ((___almod@divisor+1))&0ffh,w
  2428  0019FE  111B               	iorwf ((___almod@divisor+2))&0ffh,w
  2429                           
  2430  001A00  B4D8               	btfsc	status,2
  2431  001A02  D001               	goto	u3251
  2432  001A04  D001               	goto	u3250
  2433  001A06                     u3251:
  2434  001A06  D05E               	goto	l486
  2435  001A08                     u3250:
  2436                           	line	16
  2437  001A08  0101               	movlb	1	; () banked
  2438  001A0A  6F1F               	movwf	(??___almod+2+0)&0ffh
  2439  001A0C  0E01               	movlw	low(01h)
  2440  001A0E  0101               	movlb	1	; () banked
  2441  001A10  0101               	movlb	1	; () banked
  2442  001A12  6F1E               	movwf	((___almod@counter))&0ffh
  2443  001A14  0101               	movlb	1	; () banked
  2444  001A16  511F               	movf	(??___almod+2+0)&0ffh,w
  2445                           	line	17
  2446  001A18  D00D               	goto	l487
  2447                           	
  2448  001A1A                     l488:		; BSR set to: ?
  2449                           
  2450                           	line	18
  2451  001A1A  0101               	movlb	1	; () banked
  2452  001A1C  90D8               	bcf	status,0
  2453  001A1E  0101               	movlb	1	; () banked
  2454  001A20  3719               	rlcf	((___almod@divisor))&0ffh
  2455  001A22  0101               	movlb	1	; () banked
  2456  001A24  371A               	rlcf	((___almod@divisor+1))&0ffh
  2457  001A26  0101               	movlb	1	; () banked
  2458  001A28  371B               	rlcf	((___almod@divisor+2))&0ffh
  2459  001A2A  0101               	movlb	1	; () banked
  2460  001A2C  371C               	rlcf	((___almod@divisor+3))&0ffh
  2461                           	line	19
  2462  001A2E  0101               	movlb	1	; () banked
  2463  001A30  0101               	movlb	1	; () banked
  2464  001A32  2B1E               	incf	((___almod@counter))&0ffh
  2465                           	line	20
  2466                           	
  2467  001A34                     l487:		; BSR set to: ?
  2468                           
  2469                           	line	17
  2470  001A34  0101               	movlb	1	; () banked
  2471                           	
  2472  001A36  0101               	movlb	1	; () banked
  2473  001A38  AF1C               	btfss	((___almod@divisor+3))&0ffh,(31)&7
  2474  001A3A  D001               	goto	u3261
  2475  001A3C  D001               	goto	u3260
  2476  001A3E                     u3261:
  2477  001A3E  D7ED               	goto	l488
  2478  001A40                     u3260:
  2479                           	
  2480  001A40                     l489:		; BSR set to: ?
  2481                           
  2482                           	line	21
  2483                           	
  2484  001A40                     l492:		; BSR set to: ?
  2485                           
  2486                           	line	22
  2487  001A40  0101               	movlb	1	; () banked
  2488  001A42  0101               	movlb	1	; () banked
  2489  001A44  5119               	movf	((___almod@divisor))&0ffh,w
  2490  001A46  0101               	movlb	1	; () banked
  2491  001A48  0101               	movlb	1	; () banked
  2492  001A4A  5D15               	subwf	((___almod@dividend))&0ffh,w
  2493  001A4C  0101               	movlb	1	; () banked
  2494  001A4E  0101               	movlb	1	; () banked
  2495  001A50  511A               	movf	((___almod@divisor+1))&0ffh,w
  2496  001A52  0101               	movlb	1	; () banked
  2497  001A54  0101               	movlb	1	; () banked
  2498  001A56  5916               	subwfb	((___almod@dividend+1))&0ffh,w
  2499  001A58  0101               	movlb	1	; () banked
  2500  001A5A  0101               	movlb	1	; () banked
  2501  001A5C  511B               	movf	((___almod@divisor+2))&0ffh,w
  2502  001A5E  0101               	movlb	1	; () banked
  2503  001A60  0101               	movlb	1	; () banked
  2504  001A62  5917               	subwfb	((___almod@dividend+2))&0ffh,w
  2505  001A64  0101               	movlb	1	; () banked
  2506  001A66  0101               	movlb	1	; () banked
  2507  001A68  511C               	movf	((___almod@divisor+3))&0ffh,w
  2508  001A6A  0101               	movlb	1	; () banked
  2509  001A6C  0101               	movlb	1	; () banked
  2510  001A6E  5918               	subwfb	((___almod@dividend+3))&0ffh,w
  2511  001A70  A0D8               	btfss	status,0
  2512  001A72  D001               	goto	u3271
  2513  001A74  D001               	goto	u3270
  2514  001A76                     u3271:
  2515  001A76  D018               	goto	l493
  2516  001A78                     u3270:
  2517                           	line	23
  2518  001A78  0101               	movlb	1	; () banked
  2519  001A7A  0101               	movlb	1	; () banked
  2520  001A7C  5119               	movf	((___almod@divisor))&0ffh,w
  2521  001A7E  0101               	movlb	1	; () banked
  2522  001A80  0101               	movlb	1	; () banked
  2523  001A82  5F15               	subwf	((___almod@dividend))&0ffh
  2524  001A84  0101               	movlb	1	; () banked
  2525  001A86  0101               	movlb	1	; () banked
  2526  001A88  511A               	movf	((___almod@divisor+1))&0ffh,w
  2527  001A8A  0101               	movlb	1	; () banked
  2528  001A8C  0101               	movlb	1	; () banked
  2529  001A8E  5B16               	subwfb	((___almod@dividend+1))&0ffh
  2530  001A90  0101               	movlb	1	; () banked
  2531  001A92  0101               	movlb	1	; () banked
  2532  001A94  511B               	movf	((___almod@divisor+2))&0ffh,w
  2533  001A96  0101               	movlb	1	; () banked
  2534  001A98  0101               	movlb	1	; () banked
  2535  001A9A  5B17               	subwfb	((___almod@dividend+2))&0ffh
  2536  001A9C  0101               	movlb	1	; () banked
  2537  001A9E  0101               	movlb	1	; () banked
  2538  001AA0  511C               	movf	((___almod@divisor+3))&0ffh,w
  2539  001AA2  0101               	movlb	1	; () banked
  2540  001AA4  0101               	movlb	1	; () banked
  2541  001AA6  5B18               	subwfb	((___almod@dividend+3))&0ffh
  2542                           	
  2543  001AA8                     l493:		; BSR set to: ?
  2544                           
  2545                           	line	24
  2546  001AA8  0101               	movlb	1	; () banked
  2547  001AAA  90D8               	bcf	status,0
  2548  001AAC  0101               	movlb	1	; () banked
  2549  001AAE  331C               	rrcf	((___almod@divisor+3))&0ffh
  2550  001AB0  0101               	movlb	1	; () banked
  2551  001AB2  331B               	rrcf	((___almod@divisor+2))&0ffh
  2552  001AB4  0101               	movlb	1	; () banked
  2553  001AB6  331A               	rrcf	((___almod@divisor+1))&0ffh
  2554  001AB8  0101               	movlb	1	; () banked
  2555  001ABA  3319               	rrcf	((___almod@divisor))&0ffh
  2556                           	line	25
  2557  001ABC  0101               	movlb	1	; () banked
  2558  001ABE  0101               	movlb	1	; () banked
  2559  001AC0  2F1E               	decfsz	((___almod@counter))&0ffh
  2560                           	
  2561  001AC2  D7BE               	goto	l492
  2562                           	
  2563  001AC4                     l491:		; BSR set to: ?
  2564                           
  2565                           	line	26
  2566                           	
  2567  001AC4                     l486:		; BSR set to: ?
  2568                           
  2569                           	line	27
  2570  001AC4  0101               	movlb	1	; () banked
  2571  001AC6  0101               	movlb	1	; () banked
  2572  001AC8  511D               	movf	((___almod@sign))&0ffh,w
  2573  001ACA  B4D8               	btfsc	status,2
  2574  001ACC  D001               	goto	u3281
  2575  001ACE  D001               	goto	u3280
  2576  001AD0                     u3281:
  2577  001AD0  D010               	goto	l494
  2578  001AD2                     u3280:
  2579                           	line	28
  2580  001AD2  0101               	movlb	1	; () banked
  2581  001AD4  0101               	movlb	1	; () banked
  2582  001AD6  1F18               	comf	((___almod@dividend+3))&0ffh
  2583  001AD8  0101               	movlb	1	; () banked
  2584  001ADA  1F17               	comf	((___almod@dividend+2))&0ffh
  2585  001ADC  0101               	movlb	1	; () banked
  2586  001ADE  1F16               	comf	((___almod@dividend+1))&0ffh
  2587  001AE0  0101               	movlb	1	; () banked
  2588  001AE2  6D15               	negf	((___almod@dividend))&0ffh
  2589  001AE4  0E00               	movlw	0
  2590  001AE6  0101               	movlb	1	; () banked
  2591  001AE8  2316               	addwfc	((___almod@dividend+1))&0ffh
  2592  001AEA  0101               	movlb	1	; () banked
  2593  001AEC  2317               	addwfc	((___almod@dividend+2))&0ffh
  2594  001AEE  0101               	movlb	1	; () banked
  2595  001AF0  2318               	addwfc	((___almod@dividend+3))&0ffh
  2596                           	
  2597  001AF2                     l494:		; BSR set to: ?
  2598                           
  2599                           	line	29
  2600  001AF2  C115  F115         	movff	(___almod@dividend),(?___almod)
  2601  001AF6  C116  F116         	movff	(___almod@dividend+1),(?___almod+1)
  2602  001AFA  C117  F117         	movff	(___almod@dividend+2),(?___almod+2)
  2603  001AFE  C118  F118         	movff	(___almod@dividend+3),(?___almod+3)
  2604  001B02  D000               	goto	l483
  2605                           	line	30
  2606  001B04                     l483:
  2607                           			; BSR set to: ?
  2608                           
  2609  001B04  0012               	return
  2610                           	opt stack 0
  2611                           GLOBAL __end_of___almod
  2612  001B06                     	__end_of___almod:
  2613                           	FNSIZE	___almod,3,8
  2614                           ; =============== function ___almod ends =======
                                 =====
  2615                           
  2616                           	signat	___almod,8316
  2617                           	global	___lmul
  2618                           	global	??___lmul
  2619                           	global	?___lmul
  2620                                   psect   text13,class=CODE,space=0,reloc=
                                 2
  2621                           
  2622                           	opt lm
  2623                           	file	"C:\Program Files (x86)\HI-TECH Software\P
                                 ICC-18\PRO\9.63\sources\lmul.c"
  2624                           	line	3
  2625  000000                     	__size_of___lmul	equ	__end_of___lmul-___lmul
  2626                           	
  2627  001FCA                     ___lmul:		; BSR set to: ?
  2628                           
  2629                           	opt stack 26
  2630                           	line	4
  2631  001FCA  0E00               	movlw	low(0)
  2632  001FCC  0101               	movlb	1	; () banked
  2633  001FCE  0101               	movlb	1	; () banked
  2634  001FD0  6F0F               	movwf	((___lmul@product))&0ffh
  2635  001FD2  0E00               	movlw	high(0)
  2636  001FD4  0101               	movlb	1	; () banked
  2637  001FD6  6F10               	movwf	((___lmul@product+1))&0ffh
  2638  001FD8  0E00               	movlw	low highword(0)
  2639  001FDA  0101               	movlb	1	; () banked
  2640  001FDC  6F11               	movwf	((___lmul@product+2))&0ffh
  2641  001FDE  0E00               	movlw	high highword(0)
  2642  001FE0  0101               	movlb	1	; () banked
  2643  001FE2  6F12               	movwf	((___lmul@product+3))&0ffh
  2644                           	line	6
  2645                           	
  2646  001FE4                     l753:		; BSR set to: ?
  2647                           
  2648                           	line	7
  2649  001FE4  0101               	movlb	1	; () banked
  2650                           	
  2651  001FE6  0101               	movlb	1	; () banked
  2652  001FE8  A107               	btfss	((___lmul@multiplier))&0ffh,(0)&7
  2653  001FEA  D001               	goto	u3291
  2654  001FEC  D001               	goto	u3290
  2655  001FEE                     u3291:
  2656  001FEE  D018               	goto	l754
  2657  001FF0                     u3290:
  2658                           	line	8
  2659  001FF0  0101               	movlb	1	; () banked
  2660  001FF2  0101               	movlb	1	; () banked
  2661  001FF4  510B               	movf	((___lmul@multiplicand))&0ffh,w
  2662  001FF6  0101               	movlb	1	; () banked
  2663  001FF8  0101               	movlb	1	; () banked
  2664  001FFA  270F               	addwf	((___lmul@product))&0ffh
  2665  001FFC  0101               	movlb	1	; () banked
  2666  001FFE  0101               	movlb	1	; () banked
  2667  002000  510C               	movf	((___lmul@multiplicand+1))&0ffh,w
  2668  002002  0101               	movlb	1	; () banked
  2669  002004  0101               	movlb	1	; () banked
  2670  002006  2310               	addwfc	((___lmul@product+1))&0ffh
  2671  002008  0101               	movlb	1	; () banked
  2672  00200A  0101               	movlb	1	; () banked
  2673  00200C  510D               	movf	((___lmul@multiplicand+2))&0ffh,w
  2674  00200E  0101               	movlb	1	; () banked
  2675  002010  0101               	movlb	1	; () banked
  2676  002012  2311               	addwfc	((___lmul@product+2))&0ffh
  2677  002014  0101               	movlb	1	; () banked
  2678  002016  0101               	movlb	1	; () banked
  2679  002018  510E               	movf	((___lmul@multiplicand+3))&0ffh,w
  2680  00201A  0101               	movlb	1	; () banked
  2681  00201C  0101               	movlb	1	; () banked
  2682  00201E  2312               	addwfc	((___lmul@product+3))&0ffh
  2683                           	
  2684  002020                     l754:		; BSR set to: ?
  2685                           
  2686                           	line	9
  2687  002020  0101               	movlb	1	; () banked
  2688  002022  90D8               	bcf	status,0
  2689  002024  0101               	movlb	1	; () banked
  2690  002026  370B               	rlcf	((___lmul@multiplicand))&0ffh
  2691  002028  0101               	movlb	1	; () banked
  2692  00202A  370C               	rlcf	((___lmul@multiplicand+1))&0ffh
  2693  00202C  0101               	movlb	1	; () banked
  2694  00202E  370D               	rlcf	((___lmul@multiplicand+2))&0ffh
  2695  002030  0101               	movlb	1	; () banked
  2696  002032  370E               	rlcf	((___lmul@multiplicand+3))&0ffh
  2697                           	line	10
  2698  002034  0101               	movlb	1	; () banked
  2699  002036  90D8               	bcf	status,0
  2700  002038  0101               	movlb	1	; () banked
  2701  00203A  330A               	rrcf	((___lmul@multiplier+3))&0ffh
  2702  00203C  0101               	movlb	1	; () banked
  2703  00203E  3309               	rrcf	((___lmul@multiplier+2))&0ffh
  2704  002040  0101               	movlb	1	; () banked
  2705  002042  3308               	rrcf	((___lmul@multiplier+1))&0ffh
  2706  002044  0101               	movlb	1	; () banked
  2707  002046  3307               	rrcf	((___lmul@multiplier))&0ffh
  2708                           	line	11
  2709  002048  0101               	movlb	1	; () banked
  2710  00204A  510A               	movf	((___lmul@multiplier+3))&0ffh,w
  2711  00204C  1107               	iorwf ((___lmul@multiplier))&0ffh,w
  2712  00204E  1108               	iorwf ((___lmul@multiplier+1))&0ffh,w
  2713  002050  1109               	iorwf ((___lmul@multiplier+2))&0ffh,w
  2714                           
  2715  002052  A4D8               	btfss	status,2
  2716  002054  D001               	goto	u3301
  2717  002056  D001               	goto	u3300
  2718  002058                     u3301:
  2719  002058  D7C5               	goto	l753
  2720  00205A                     u3300:
  2721                           	
  2722  00205A                     l752:		; BSR set to: ?
  2723                           
  2724                           	line	12
  2725  00205A  C10F  F107         	movff	(___lmul@product),(?___lmul)
  2726  00205E  C110  F108         	movff	(___lmul@product+1),(?___lmul+1)
  2727  002062  C111  F109         	movff	(___lmul@product+2),(?___lmul+2)
  2728  002066  C112  F10A         	movff	(___lmul@product+3),(?___lmul+3)
  2729  00206A  D000               	goto	l750
  2730                           	line	13
  2731  00206C                     l750:
  2732                           			; BSR set to: ?
  2733                           
  2734  00206C  0012               	return
  2735                           	opt stack 0
  2736                           GLOBAL __end_of___lmul
  2737  00206E                     	__end_of___lmul:
  2738                           	FNSIZE	___lmul,4,8
  2739                           ; =============== function ___lmul ends ========
                                 ====
  2740                           
  2741                           	signat	___lmul,8316
  2742                           	global	_lcd_write
  2743                           	global	??_lcd_write
  2744                           	global	?_lcd_write
  2745                                   psect   text14,class=CODE,space=0,reloc=
                                 2
  2746                           
  2747                           	opt lm
  2748                           	file	"C:\Users\anton\OneDrive\Desktop\Comp_Sci_
                                 Studies\spring_2026\ece_376\term_project\src\lcd
                                 _portd.c"
  2749                           	line	88
  2750  000000                     	__size_of_lcd_write	equ	__end_of_lcd_write-_lcd
                                 _write
  2751                           ;lcd_portd.c: 87: void lcd_write(unsigned char c
                                 )
  2752                           ;lcd_portd.c: 88: {
  2753                           	
  2754  002496                     _lcd_write:		; BSR set to: ?
  2755                           
  2756                           	opt stack 26
  2757                           	line	89
  2758  002496  8483               	bsf	c:(31770/8),(31770)&7	;volatile
  2759                           	line	90
  2760                           ;lcd_portd.c: 90: PORTD = (PORTD & 0x0F) | (c & 
                                 0xF0);
  2761  002498  C115  F116         	movff	(lcd_write@c),??_lcd_write+0+0
  2762  00249C  0EF0               	movlw	0F0h
  2763  00249E  0101               	movlb	1	; () banked
  2764  0024A0  1716               	andwf	(??_lcd_write+0+0)&0ffh
  2765  0024A2  5083               	movf	((c:3971)),c,w	;volatile
  2766  0024A4  0B0F               	andlw	low(0Fh)
  2767  0024A6  0101               	movlb	1	; () banked
  2768  0024A8  1116               	iorwf	(??_lcd_write+0+0)&0ffh,w
  2769  0024AA  6E83               	movwf	((c:3971)),c	;volatile
  2770                           	line	91
  2771                           ;lcd_portd.c: 91: lcd_strobe();
  2772  0024AC  ECC4  F012         	call	_lcd_strobe	;wreg free
  2773                           	line	92
  2774                           ;lcd_portd.c: 92: PORTD = (PORTD & 0x0F) | ((c<<
                                 4) & 0xF0);
  2775  0024B0  C115  F116         	movff	(lcd_write@c),??_lcd_write+0+0
  2776  0024B4  0101               	movlb	1	; () banked
  2777  0024B6  3B16               	swapf	(??_lcd_write+0+0)&0ffh
  2778  0024B8  0EF0               	movlw	(0ffh shl 4) & 0ffh
  2779  0024BA  1716               	andwf	(??_lcd_write+0+0)&0ffh
  2780  0024BC  0EF0               	movlw	0F0h
  2781  0024BE  0101               	movlb	1	; () banked
  2782  0024C0  1716               	andwf	(??_lcd_write+0+0)&0ffh
  2783  0024C2  5083               	movf	((c:3971)),c,w	;volatile
  2784  0024C4  0B0F               	andlw	low(0Fh)
  2785  0024C6  0101               	movlb	1	; () banked
  2786  0024C8  1116               	iorwf	(??_lcd_write+0+0)&0ffh,w
  2787  0024CA  6E83               	movwf	((c:3971)),c	;volatile
  2788                           	line	93
  2789                           ;lcd_portd.c: 93: lcd_strobe();
  2790  0024CC  ECC4  F012         	call	_lcd_strobe	;wreg free
  2791                           	line	95
  2792                           ;lcd_portd.c: 95: }
  2793  0024D0                     l247:
  2794                           			; BSR set to: ?
  2795                           
  2796  0024D0  0012               	return
  2797                           	opt stack 0
  2798                           GLOBAL __end_of_lcd_write
  2799  0024D2                     	__end_of_lcd_write:
  2800                           	FNSIZE	_lcd_write,1,1
  2801                           ; =============== function _lcd_write ends =====
                                 =======
  2802                           
  2803                           	signat	_lcd_write,4216
  2804                           	global	_lcd_inst
  2805                           	global	??_lcd_inst
  2806                           	global	?_lcd_inst
  2807                                   psect   text15,class=CODE,space=0,reloc=
                                 2
  2808                           
  2809                           	opt lm
  2810                           	file	"C:\Users\anton\OneDrive\Desktop\Comp_Sci_
                                 Studies\spring_2026\ece_376\term_project\src\lcd
                                 _portd.c"
  2811                           	line	56
  2812  000000                     	__size_of_lcd_inst	equ	__end_of_lcd_inst-_lcd_i
                                 nst
  2813                           ;lcd_portd.c: 55: void lcd_inst(unsigned char c)
  2814                           ;lcd_portd.c: 56: {
  2815                           	
  2816  00240A                     _lcd_inst:		; BSR set to: ?
  2817                           
  2818                           	opt stack 26
  2819                           	line	57
  2820                           ;lcd_portd.c: 57: RD2 = 0;
  2821  00240A  9483               	bcf	c:(31770/8),(31770)&7	;volatile
  2822                           	line	58
  2823                           ;lcd_portd.c: 58: PORTD = (PORTD & 0x0F) | (c & 
                                 0xF0);
  2824  00240C  C105  F106         	movff	(lcd_inst@c),??_lcd_inst+0+0
  2825  002410  0EF0               	movlw	0F0h
  2826  002412  0101               	movlb	1	; () banked
  2827  002414  1706               	andwf	(??_lcd_inst+0+0)&0ffh
  2828  002416  5083               	movf	((c:3971)),c,w	;volatile
  2829  002418  0B0F               	andlw	low(0Fh)
  2830  00241A  0101               	movlb	1	; () banked
  2831  00241C  1106               	iorwf	(??_lcd_inst+0+0)&0ffh,w
  2832  00241E  6E83               	movwf	((c:3971)),c	;volatile
  2833                           	line	61
  2834                           ;lcd_portd.c: 61: lcd_strobe();
  2835  002420  ECC4  F012         	call	_lcd_strobe	;wreg free
  2836                           	line	62
  2837                           ;lcd_portd.c: 62: PORTD = (PORTD & 0x0F) | ((c<<
                                 4) & 0xF0);
  2838  002424  C105  F106         	movff	(lcd_inst@c),??_lcd_inst+0+0
  2839  002428  0101               	movlb	1	; () banked
  2840  00242A  3B06               	swapf	(??_lcd_inst+0+0)&0ffh
  2841  00242C  0EF0               	movlw	(0ffh shl 4) & 0ffh
  2842  00242E  1706               	andwf	(??_lcd_inst+0+0)&0ffh
  2843  002430  0EF0               	movlw	0F0h
  2844  002432  0101               	movlb	1	; () banked
  2845  002434  1706               	andwf	(??_lcd_inst+0+0)&0ffh
  2846  002436  5083               	movf	((c:3971)),c,w	;volatile
  2847  002438  0B0F               	andlw	low(0Fh)
  2848  00243A  0101               	movlb	1	; () banked
  2849  00243C  1106               	iorwf	(??_lcd_inst+0+0)&0ffh,w
  2850  00243E  6E83               	movwf	((c:3971)),c	;volatile
  2851                           	line	63
  2852                           ;lcd_portd.c: 63: lcd_strobe();
  2853  002440  ECC4  F012         	call	_lcd_strobe	;wreg free
  2854                           	line	64
  2855                           ;lcd_portd.c: 64: wait_ms(10);
  2856  002444  0E0A               	movlw	low(0Ah)
  2857  002446  0101               	movlb	1	; () banked
  2858  002448  0101               	movlb	1	; () banked
  2859  00244A  6F07               	movwf	((?_wait_ms))&0ffh
  2860  00244C  0E00               	movlw	high(0Ah)
  2861  00244E  0101               	movlb	1	; () banked
  2862  002450  6F08               	movwf	((?_wait_ms+1))&0ffh
  2863  002452  EC79  F010         	call	_wait_ms	;wreg free
  2864                           	line	65
  2865                           ;lcd_portd.c: 65: }
  2866  002456                     l241:
  2867                           			; BSR set to: ?
  2868                           
  2869  002456  0012               	return
  2870                           	opt stack 0
  2871                           GLOBAL __end_of_lcd_inst
  2872  002458                     	__end_of_lcd_inst:
  2873                           	FNSIZE	_lcd_inst,1,1
  2874                           ; =============== function _lcd_inst ends ======
                                 ======
  2875                           
  2876                           	signat	_lcd_inst,4216
  2877                           	global	_pwm_set_midpoint
  2878                           	global	??_pwm_set_midpoint
  2879                           	global	?_pwm_set_midpoint
  2880                                   psect   text16,class=CODE,space=0,reloc=
                                 2
  2881                           
  2882                           	opt lm
  2883                           	file	"C:\Users\anton\OneDrive\Desktop\Comp_Sci_
                                 Studies\spring_2026\ece_376\term_project\src\mai
                                 n.c"
  2884                           	line	102
  2885  000000                     	__size_of_pwm_set_midpoint	equ	__end_of_pwm_set
                                 _midpoint-_pwm_set_midpoint
  2886                           ;main.c: 101: static void pwm_set_midpoint(void)
  2887                           ;main.c: 102: {
  2888                           	
  2889  002508                     _pwm_set_midpoint:		; BSR set to: ?
  2890                           
  2891                           	opt stack 26
  2892                           	line	103
  2893  002508  0E00               	movlw	low(0100h)
  2894  00250A  0101               	movlb	1	; () banked
  2895  00250C  0101               	movlb	1	; () banked
  2896  00250E  6F04               	movwf	((?_pwm_set_duty_ccp1))&0ffh
  2897  002510  0E01               	movlw	high(0100h)
  2898  002512  0101               	movlb	1	; () banked
  2899  002514  6F05               	movwf	((?_pwm_set_duty_ccp1+1))&0ffh
  2900  002516  EC2E  F011         	call	_pwm_set_duty_ccp1	;wreg free
  2901                           	line	104
  2902                           ;main.c: 104: pwm_set_duty_ccp2(256U);
  2903  00251A  0E00               	movlw	low(0100h)
  2904  00251C  0101               	movlb	1	; () banked
  2905  00251E  0101               	movlb	1	; () banked
  2906  002520  6F04               	movwf	((?_pwm_set_duty_ccp2))&0ffh
  2907  002522  0E01               	movlw	high(0100h)
  2908  002524  0101               	movlb	1	; () banked
  2909  002526  6F05               	movwf	((?_pwm_set_duty_ccp2+1))&0ffh
  2910  002528  EC69  F011         	call	_pwm_set_duty_ccp2	;wreg free
  2911                           	line	105
  2912                           ;main.c: 105: }
  2913  00252C                     l406:
  2914                           			; BSR set to: ?
  2915                           
  2916  00252C  0012               	return
  2917                           	opt stack 0
  2918                           GLOBAL __end_of_pwm_set_midpoint
  2919  00252E                     	__end_of_pwm_set_midpoint:
  2920                           	FNSIZE	_pwm_set_midpoint,0,0
  2921                           ; =============== function _pwm_set_midpoint end
                                 s ============
  2922                           
  2923                           	signat	_pwm_set_midpoint,88
  2924                           	global	_pwm_set_duty_ccp2
  2925                           	global	??_pwm_set_duty_ccp2
  2926                           	global	?_pwm_set_duty_ccp2
  2927                                   psect   text17,class=CODE,space=0,reloc=
                                 2
  2928                           
  2929                           	opt lm
  2930                           	file	"C:\Users\anton\OneDrive\Desktop\Comp_Sci_
                                 Studies\spring_2026\ece_376\term_project\src\mai
                                 n.c"
  2931                           	line	93
  2932  000000                     	__size_of_pwm_set_duty_ccp2	equ	__end_of_pwm_se
                                 t_duty_ccp2-_pwm_set_duty_ccp2
  2933                           ;main.c: 92: static void pwm_set_duty_ccp2(unsig
                                 ned int duty10)
  2934                           ;main.c: 93: {
  2935                           	
  2936  0022D2                     _pwm_set_duty_ccp2:		; BSR set to: ?
  2937                           
  2938                           	opt stack 25
  2939                           	line	94
  2940  0022D2  0E00               	movlw	0
  2941  0022D4  0101               	movlb	1	; () banked
  2942  0022D6  0101               	movlb	1	; () banked
  2943  0022D8  5D04               	subwf	((pwm_set_duty_ccp2@duty10))&0ffh,w
  2944  0022DA  0E02               	movlw	02h
  2945  0022DC  0101               	movlb	1	; () banked
  2946  0022DE  5905               	subwfb	((pwm_set_duty_ccp2@duty10+1))&0ffh,w
  2947  0022E0  A0D8               	btfss	status,0
  2948  0022E2  D001               	goto	u2921
  2949  0022E4  D001               	goto	u2920
  2950  0022E6                     u2921:
  2951  0022E6  D007               	goto	l405
  2952  0022E8                     u2920:
  2953  0022E8  0EFF               	movlw	low(01FFh)
  2954  0022EA  0101               	movlb	1	; () banked
  2955  0022EC  0101               	movlb	1	; () banked
  2956  0022EE  6F04               	movwf	((pwm_set_duty_ccp2@duty10))&0ffh
  2957  0022F0  0E01               	movlw	high(01FFh)
  2958  0022F2  0101               	movlb	1	; () banked
  2959  0022F4  6F05               	movwf	((pwm_set_duty_ccp2@duty10+1))&0ffh
  2960                           	
  2961  0022F6                     l405:		; BSR set to: ?
  2962                           
  2963                           	line	95
  2964                           ;main.c: 95: CCPR2L = (unsigned char)(duty10 >> 
                                 2);
  2965  0022F6  0101               	movlb	1	; () banked
  2966  0022F8  C104  F106         	movff	(pwm_set_duty_ccp2@duty10),??_pwm_set_dut
                                 y_ccp2+0+0
  2967  0022FC  0101               	movlb	1	; () banked
  2968  0022FE  C105  F107         	movff	(pwm_set_duty_ccp2@duty10+1),??_pwm_set_d
                                 uty_ccp2+0+0+1
  2969  002302  90D8               	bcf	status,0
  2970  002304  0101               	movlb	1	; () banked
  2971  002306  3307               	rrcf	(??_pwm_set_duty_ccp2+0+1)&0ffh
  2972  002308  3306               	rrcf	(??_pwm_set_duty_ccp2+0+0)&0ffh
  2973  00230A  90D8               	bcf	status,0
  2974  00230C  0101               	movlb	1	; () banked
  2975  00230E  3307               	rrcf	(??_pwm_set_duty_ccp2+0+1)&0ffh
  2976  002310  3306               	rrcf	(??_pwm_set_duty_ccp2+0+0)&0ffh
  2977  002312  0101               	movlb	1	; () banked
  2978  002314  5106               	movf	(??_pwm_set_duty_ccp2+0+0)&0ffh,w
  2979  002316  6EBB               	movwf	((c:4027)),c	;volatile
  2980                           	line	96
  2981                           ;main.c: 96: DC2B1 = (unsigned char)((duty10 >> 
                                 1) & 0x01);
  2982  002318  90D8               	bcf	status,0
  2983  00231A  0101               	movlb	1	; () banked
  2984  00231C  0101               	movlb	1	; () banked
  2985  00231E  3105               	rrcf	((pwm_set_duty_ccp2@duty10+1))&0ffh,w
  2986  002320  0101               	movlb	1	; () banked
  2987  002322  6F07               	movwf	(??_pwm_set_duty_ccp2+0+0+1)&0ffh
  2988  002324  0101               	movlb	1	; () banked
  2989  002326  0101               	movlb	1	; () banked
  2990  002328  3104               	rrcf	((pwm_set_duty_ccp2@duty10))&0ffh,w
  2991  00232A  0101               	movlb	1	; () banked
  2992  00232C  6F06               	movwf	(??_pwm_set_duty_ccp2+0+0)&0ffh
  2993  00232E  0101               	movlb	1	; () banked
  2994  002330  3106               	rrcf	(??_pwm_set_duty_ccp2+0+0)&0ffh,w
  2995  002332  9ABA               	bcf	c:(32213/8),(32213)&7
  2996  002334  A0D8               	btfss	status,0
  2997  002336  D001               	goto	u2935
  2998  002338  8ABA               	bsf	c:(32213/8),(32213)&7
  2999  00233A                     u2935:
  3000                           	line	97
  3001                           ;main.c: 97: DC2B0 = (unsigned char)(duty10 & 0x
                                 01);
  3002  00233A  98BA               	bcf	c:(32212/8),(32212)&7
  3003  00233C  0101               	movlb	1	; () banked
  3004  00233E  0101               	movlb	1	; () banked
  3005  002340  A104               	btfss	((pwm_set_duty_ccp2@duty10))&0ffh,0
  3006  002342  D001               	goto	u2945
  3007  002344  88BA               	bsf	c:(32212/8),(32212)&7
  3008  002346                     u2945:
  3009                           	line	98
  3010                           ;main.c: 98: }
  3011  002346                     l404:
  3012                           			; BSR set to: ?
  3013                           
  3014  002346  0012               	return
  3015                           	opt stack 0
  3016                           GLOBAL __end_of_pwm_set_duty_ccp2
  3017  002348                     	__end_of_pwm_set_duty_ccp2:
  3018                           	FNSIZE	_pwm_set_duty_ccp2,2,2
  3019                           ; =============== function _pwm_set_duty_ccp2 en
                                 ds ============
  3020                           
  3021                           	signat	_pwm_set_duty_ccp2,4216
  3022                           	global	_lcd_strobe
  3023                           	global	??_lcd_strobe
  3024                           	global	?_lcd_strobe
  3025                                   psect   text18,class=CODE,space=0,reloc=
                                 2
  3026                           
  3027                           	opt lm
  3028                           	file	"C:\Users\anton\OneDrive\Desktop\Comp_Sci_
                                 Studies\spring_2026\ece_376\term_project\src\lcd
                                 _portd.c"
  3029                           	line	42
  3030  000000                     	__size_of_lcd_strobe	equ	__end_of_lcd_strobe-_l
                                 cd_strobe
  3031                           ;lcd_portd.c: 41: void lcd_strobe(void)
  3032                           ;lcd_portd.c: 42: {
  3033                           	
  3034  002588                     _lcd_strobe:		; BSR set to: ?
  3035                           
  3036                           	opt stack 25
  3037                           	line	43
  3038  002588  9683               	bcf	c:(31771/8),(31771)&7	;volatile
  3039                           	line	44
  3040                           ;lcd_portd.c: 44: lcd_pause();
  3041  00258A  EC69  F012         	call	_lcd_pause	;wreg free
  3042                           	line	45
  3043                           ;lcd_portd.c: 45: RD3 = 1;
  3044  00258E  8683               	bsf	c:(31771/8),(31771)&7	;volatile
  3045                           	line	46
  3046                           ;lcd_portd.c: 46: lcd_pause ();
  3047  002590  EC69  F012         	call	_lcd_pause	;wreg free
  3048                           	line	47
  3049                           ;lcd_portd.c: 47: RD3 = 0;
  3050  002594  9683               	bcf	c:(31771/8),(31771)&7	;volatile
  3051                           	line	48
  3052                           ;lcd_portd.c: 48: lcd_pause();
  3053  002596  EC69  F012         	call	_lcd_pause	;wreg free
  3054                           	line	49
  3055                           ;lcd_portd.c: 49: }
  3056  00259A                     l240:
  3057                           			; BSR set to: ?
  3058                           
  3059  00259A  0012               	return
  3060                           	opt stack 0
  3061                           GLOBAL __end_of_lcd_strobe
  3062  00259C                     	__end_of_lcd_strobe:
  3063                           	FNSIZE	_lcd_strobe,0,0
  3064                           ; =============== function _lcd_strobe ends ====
                                 ========
  3065                           
  3066                           	signat	_lcd_strobe,88
  3067                           	global	_pwm_set_duty_ccp1
  3068                           	global	??_pwm_set_duty_ccp1
  3069                           	global	?_pwm_set_duty_ccp1
  3070                                   psect   text19,class=CODE,space=0,reloc=
                                 2
  3071                           
  3072                           	opt lm
  3073                           	file	"C:\Users\anton\OneDrive\Desktop\Comp_Sci_
                                 Studies\spring_2026\ece_376\term_project\src\mai
                                 n.c"
  3074                           	line	80
  3075  000000                     	__size_of_pwm_set_duty_ccp1	equ	__end_of_pwm_se
                                 t_duty_ccp1-_pwm_set_duty_ccp1
  3076                           ;main.c: 79: static void pwm_set_duty_ccp1(unsig
                                 ned int duty10)
  3077                           ;main.c: 80: {
  3078                           	
  3079  00225C                     _pwm_set_duty_ccp1:		; BSR set to: ?
  3080                           
  3081                           	opt stack 25
  3082                           	line	81
  3083                           ;main.c: 81: if (duty10 > 511U) duty10 = 511U;
  3084  00225C  0E00               	movlw	0
  3085  00225E  0101               	movlb	1	; () banked
  3086  002260  0101               	movlb	1	; () banked
  3087  002262  5D04               	subwf	((pwm_set_duty_ccp1@duty10))&0ffh,w
  3088  002264  0E02               	movlw	02h
  3089  002266  0101               	movlb	1	; () banked
  3090  002268  5905               	subwfb	((pwm_set_duty_ccp1@duty10+1))&0ffh,w
  3091  00226A  A0D8               	btfss	status,0
  3092  00226C  D001               	goto	u2861
  3093  00226E  D001               	goto	u2860
  3094  002270                     u2861:
  3095  002270  D007               	goto	l403
  3096  002272                     u2860:
  3097  002272  0EFF               	movlw	low(01FFh)
  3098  002274  0101               	movlb	1	; () banked
  3099  002276  0101               	movlb	1	; () banked
  3100  002278  6F04               	movwf	((pwm_set_duty_ccp1@duty10))&0ffh
  3101  00227A  0E01               	movlw	high(01FFh)
  3102  00227C  0101               	movlb	1	; () banked
  3103  00227E  6F05               	movwf	((pwm_set_duty_ccp1@duty10+1))&0ffh
  3104                           	
  3105  002280                     l403:		; BSR set to: ?
  3106                           
  3107                           	line	84
  3108                           ;main.c: 84: CCPR1L = (unsigned char)(duty10 >> 
                                 2);
  3109  002280  0101               	movlb	1	; () banked
  3110  002282  C104  F106         	movff	(pwm_set_duty_ccp1@duty10),??_pwm_set_dut
                                 y_ccp1+0+0
  3111  002286  0101               	movlb	1	; () banked
  3112  002288  C105  F107         	movff	(pwm_set_duty_ccp1@duty10+1),??_pwm_set_d
                                 uty_ccp1+0+0+1
  3113  00228C  90D8               	bcf	status,0
  3114  00228E  0101               	movlb	1	; () banked
  3115  002290  3307               	rrcf	(??_pwm_set_duty_ccp1+0+1)&0ffh
  3116  002292  3306               	rrcf	(??_pwm_set_duty_ccp1+0+0)&0ffh
  3117  002294  90D8               	bcf	status,0
  3118  002296  0101               	movlb	1	; () banked
  3119  002298  3307               	rrcf	(??_pwm_set_duty_ccp1+0+1)&0ffh
  3120  00229A  3306               	rrcf	(??_pwm_set_duty_ccp1+0+0)&0ffh
  3121  00229C  0101               	movlb	1	; () banked
  3122  00229E  5106               	movf	(??_pwm_set_duty_ccp1+0+0)&0ffh,w
  3123  0022A0  6EBE               	movwf	((c:4030)),c	;volatile
  3124                           	line	87
  3125                           ;main.c: 87: DC1B1 = (unsigned char)((duty10 >> 
                                 1) & 0x01);
  3126  0022A2  90D8               	bcf	status,0
  3127  0022A4  0101               	movlb	1	; () banked
  3128  0022A6  0101               	movlb	1	; () banked
  3129  0022A8  3105               	rrcf	((pwm_set_duty_ccp1@duty10+1))&0ffh,w
  3130  0022AA  0101               	movlb	1	; () banked
  3131  0022AC  6F07               	movwf	(??_pwm_set_duty_ccp1+0+0+1)&0ffh
  3132  0022AE  0101               	movlb	1	; () banked
  3133  0022B0  0101               	movlb	1	; () banked
  3134  0022B2  3104               	rrcf	((pwm_set_duty_ccp1@duty10))&0ffh,w
  3135  0022B4  0101               	movlb	1	; () banked
  3136  0022B6  6F06               	movwf	(??_pwm_set_duty_ccp1+0+0)&0ffh
  3137  0022B8  0101               	movlb	1	; () banked
  3138  0022BA  3106               	rrcf	(??_pwm_set_duty_ccp1+0+0)&0ffh,w
  3139  0022BC  9ABD               	bcf	c:(32237/8),(32237)&7
  3140  0022BE  A0D8               	btfss	status,0
  3141  0022C0  D001               	goto	u2875
  3142  0022C2  8ABD               	bsf	c:(32237/8),(32237)&7
  3143  0022C4                     u2875:
  3144                           	line	88
  3145                           ;main.c: 88: DC1B0 = (unsigned char)(duty10 & 0x
                                 01);
  3146  0022C4  98BD               	bcf	c:(32236/8),(32236)&7
  3147  0022C6  0101               	movlb	1	; () banked
  3148  0022C8  0101               	movlb	1	; () banked
  3149  0022CA  A104               	btfss	((pwm_set_duty_ccp1@duty10))&0ffh,0
  3150  0022CC  D001               	goto	u2885
  3151  0022CE  88BD               	bsf	c:(32236/8),(32236)&7
  3152  0022D0                     u2885:
  3153                           	line	89
  3154                           ;main.c: 89: }
  3155  0022D0                     l402:
  3156                           			; BSR set to: ?
  3157                           
  3158  0022D0  0012               	return
  3159                           	opt stack 0
  3160                           GLOBAL __end_of_pwm_set_duty_ccp1
  3161  0022D2                     	__end_of_pwm_set_duty_ccp1:
  3162                           	FNSIZE	_pwm_set_duty_ccp1,2,2
  3163                           ; =============== function _pwm_set_duty_ccp1 en
                                 ds ============
  3164                           
  3165                           	signat	_pwm_set_duty_ccp1,4216
  3166                           	global	_wait_ms
  3167                           	global	??_wait_ms
  3168                           	global	?_wait_ms
  3169                                   psect   text20,class=CODE,space=0,reloc=
                                 2
  3170                           
  3171                           	opt lm
  3172                           	file	"C:\Users\anton\OneDrive\Desktop\Comp_Sci_
                                 Studies\spring_2026\ece_376\term_project\src\lcd
                                 _portd.c"
  3173                           	line	26
  3174  000000                     	__size_of_wait_ms	equ	__end_of_wait_ms-_wait_ms
  3175                           ;lcd_portd.c: 25: void wait_ms(unsigned int x)
  3176                           ;lcd_portd.c: 26: {
  3177                           	
  3178  0020F2                     _wait_ms:		; BSR set to: ?
  3179                           
  3180                           	opt stack 25
  3181                           	line	29
  3182                           ;lcd_portd.c: 27: unsigned int i, j;
  3183                           ;lcd_portd.c: 29: for (i=0; i<x; i++)
  3184  0020F2  0E00               	movlw	low(0)
  3185  0020F4  0101               	movlb	1	; () banked
  3186  0020F6  0101               	movlb	1	; () banked
  3187  0020F8  6F09               	movwf	((wait_ms@i))&0ffh
  3188  0020FA  0E00               	movlw	high(0)
  3189  0020FC  0101               	movlb	1	; () banked
  3190  0020FE  6F0A               	movwf	((wait_ms@i+1))&0ffh
  3191  002100  D026               	goto	l232
  3192                           	line	30
  3193                           	
  3194  002102                     l229:		; BSR set to: ?
  3195                           
  3196                           ;lcd_portd.c: 30: for (j=0; j<617; j++);
  3197  002102  0E00               	movlw	low(0)
  3198  002104  0101               	movlb	1	; () banked
  3199  002106  0101               	movlb	1	; () banked
  3200  002108  6F0B               	movwf	((wait_ms@j))&0ffh
  3201  00210A  0E00               	movlw	high(0)
  3202  00210C  0101               	movlb	1	; () banked
  3203  00210E  6F0C               	movwf	((wait_ms@j+1))&0ffh
  3204  002110  0E69               	movlw	069h
  3205  002112  0101               	movlb	1	; () banked
  3206  002114  0101               	movlb	1	; () banked
  3207  002116  5D0B               	subwf	((wait_ms@j))&0ffh,w
  3208  002118  0E02               	movlw	02h
  3209  00211A  0101               	movlb	1	; () banked
  3210  00211C  590C               	subwfb	((wait_ms@j+1))&0ffh,w
  3211  00211E  A0D8               	btfss	status,0
  3212  002120  D001               	goto	u3311
  3213  002122  D001               	goto	u3310
  3214  002124                     u3311:
  3215  002124  D001               	goto	l233
  3216  002126                     u3310:
  3217  002126  D00F               	goto	l234
  3218                           	
  3219  002128                     l233:		; BSR set to: ?
  3220                           
  3221  002128  0101               	movlb	1	; () banked
  3222  00212A  0101               	movlb	1	; () banked
  3223  00212C  4B0B               	infsnz	((wait_ms@j))&0ffh
  3224  00212E  2B0C               	incf	((wait_ms@j+1))&0ffh
  3225  002130  0E69               	movlw	069h
  3226  002132  0101               	movlb	1	; () banked
  3227  002134  0101               	movlb	1	; () banked
  3228  002136  5D0B               	subwf	((wait_ms@j))&0ffh,w
  3229  002138  0E02               	movlw	02h
  3230  00213A  0101               	movlb	1	; () banked
  3231  00213C  590C               	subwfb	((wait_ms@j+1))&0ffh,w
  3232  00213E  A0D8               	btfss	status,0
  3233  002140  D001               	goto	u3321
  3234  002142  D001               	goto	u3320
  3235  002144                     u3321:
  3236  002144  D7F1               	goto	l233
  3237  002146                     u3320:
  3238                           	
  3239  002146                     l234:		; BSR set to: ?
  3240                           
  3241                           	line	29
  3242  002146  0101               	movlb	1	; () banked
  3243  002148  0101               	movlb	1	; () banked
  3244  00214A  4B09               	infsnz	((wait_ms@i))&0ffh
  3245  00214C  2B0A               	incf	((wait_ms@i+1))&0ffh
  3246                           	
  3247  00214E                     l232:		; BSR set to: ?
  3248                           
  3249  00214E  0101               	movlb	1	; () banked
  3250  002150  0101               	movlb	1	; () banked
  3251  002152  5107               	movf	((wait_ms@x))&0ffh,w
  3252  002154  0101               	movlb	1	; () banked
  3253  002156  0101               	movlb	1	; () banked
  3254  002158  5D09               	subwf	((wait_ms@i))&0ffh,w
  3255  00215A  0101               	movlb	1	; () banked
  3256  00215C  0101               	movlb	1	; () banked
  3257  00215E  5108               	movf	((wait_ms@x+1))&0ffh,w
  3258  002160  0101               	movlb	1	; () banked
  3259  002162  0101               	movlb	1	; () banked
  3260  002164  590A               	subwfb	((wait_ms@i+1))&0ffh,w
  3261  002166  A0D8               	btfss	status,0
  3262  002168  D001               	goto	u3331
  3263  00216A  D001               	goto	u3330
  3264  00216C                     u3331:
  3265  00216C  D7CA               	goto	l229
  3266  00216E                     u3330:
  3267                           	
  3268  00216E                     l230:		; BSR set to: ?
  3269                           
  3270                           	line	31
  3271                           ;lcd_portd.c: 31: }
  3272  00216E                     l228:
  3273                           			; BSR set to: ?
  3274                           
  3275  00216E  0012               	return
  3276                           	opt stack 0
  3277                           GLOBAL __end_of_wait_ms
  3278  002170                     	__end_of_wait_ms:
  3279                           	FNSIZE	_wait_ms,4,2
  3280                           ; =============== function _wait_ms ends =======
                                 =====
  3281                           
  3282                           	signat	_wait_ms,4216
  3283                           	global	_lcd_pause
  3284                           	global	??_lcd_pause
  3285                           	global	?_lcd_pause
  3286                                   psect   text21,class=CODE,space=0,reloc=
                                 2
  3287                           
  3288                           	opt lm
  3289                           	file	"C:\Users\anton\OneDrive\Desktop\Comp_Sci_
                                 Studies\spring_2026\ece_376\term_project\src\lcd
                                 _portd.c"
  3290                           	line	35
  3291  000000                     	__size_of_lcd_pause	equ	__end_of_lcd_pause-_lcd
                                 _pause
  3292                           ;lcd_portd.c: 34: void lcd_pause(void)
  3293                           ;lcd_portd.c: 35: {
  3294                           	
  3295  0024D2                     _lcd_pause:		; BSR set to: ?
  3296                           
  3297                           	opt stack 24
  3298                           	line	37
  3299                           ;lcd_portd.c: 36: unsigned char x;
  3300                           ;lcd_portd.c: 37: for (x=0; x<20; x++);
  3301  0024D2  0101               	movlb	1	; () banked
  3302  0024D4  6F18               	movwf	(??_lcd_pause+1+0)&0ffh
  3303  0024D6  0E00               	movlw	low(0)
  3304  0024D8  0101               	movlb	1	; () banked
  3305  0024DA  0101               	movlb	1	; () banked
  3306  0024DC  6F17               	movwf	((lcd_pause@x))&0ffh
  3307  0024DE  0101               	movlb	1	; () banked
  3308  0024E0  5118               	movf	(??_lcd_pause+1+0)&0ffh,w
  3309  0024E2  0E13               	movlw	(014h-1)
  3310  0024E4  0101               	movlb	1	; () banked
  3311  0024E6  0101               	movlb	1	; () banked
  3312  0024E8  6517               	cpfsgt	((lcd_pause@x))&0ffh
  3313  0024EA  D001               	goto	u3341
  3314  0024EC  D001               	goto	u3340
  3315  0024EE                     u3341:
  3316  0024EE  D001               	goto	l237
  3317  0024F0                     u3340:
  3318  0024F0  D00A               	goto	l238
  3319                           	
  3320  0024F2                     l237:		; BSR set to: ?
  3321                           
  3322  0024F2  0101               	movlb	1	; () banked
  3323  0024F4  0101               	movlb	1	; () banked
  3324  0024F6  2B17               	incf	((lcd_pause@x))&0ffh
  3325  0024F8  0E13               	movlw	(014h-1)
  3326  0024FA  0101               	movlb	1	; () banked
  3327  0024FC  0101               	movlb	1	; () banked
  3328  0024FE  6517               	cpfsgt	((lcd_pause@x))&0ffh
  3329  002500  D001               	goto	u3351
  3330  002502  D001               	goto	u3350
  3331  002504                     u3351:
  3332  002504  D7F6               	goto	l237
  3333  002506                     u3350:
  3334                           	
  3335  002506                     l238:		; BSR set to: ?
  3336                           
  3337                           	line	38
  3338                           ;lcd_portd.c: 38: }
  3339  002506                     l236:
  3340                           			; BSR set to: ?
  3341                           
  3342  002506  0012               	return
  3343                           	opt stack 0
  3344                           GLOBAL __end_of_lcd_pause
  3345  002508                     	__end_of_lcd_pause:
  3346                           	FNSIZE	_lcd_pause,2,0
  3347                           ; =============== function _lcd_pause ends =====
                                 =======
  3348                           
  3349                           	signat	_lcd_pause,88
  3350                           	global	_IntServe
  3351                           	global	??_IntServe
  3352                           	global	?_IntServe
  3353                                   psect   text22,class=CODE,space=0,reloc=
                                 2
  3354                           
  3355                           	opt lm
  3356                           	file	"C:\Users\anton\OneDrive\Desktop\Comp_Sci_
                                 Studies\spring_2026\ece_376\term_project\src\mai
                                 n.c"
  3357                           	line	215
  3358  000000                     	__size_of_IntServe	equ	__end_of_IntServe-_IntSe
                                 rve
  3359                           ;main.c: 214: void interrupt IntServe(void)
  3360                           ;main.c: 215: {
  3361                           	
  3362  001B06                     _IntServe:		; BSR set to: ?
  3363                           
  3364  001B06  0006               	pop	; remove dummy address from shadow register
                                  refresh
  3365                           
  3366                           	opt stack 31
  3367                                   psect   intcode,class=CODE,space=0,reloc
                                 =2
  3368                           	global	int_func
  3369  000808                     int_func:
  3370                                   psect   intcode
  3371  000808  CFFA F124          	movff	pclat+0,??_IntServe+0
  3372  00080C  CFFB F125          	movff	pclat+1,??_IntServe+1
  3373  000810  CFE9 F126          	movff	fsr0l+0,??_IntServe+2
  3374  000814  ED83  F00D         	call	_IntServe,f	;refresh shadow registers
  3375                                   psect   text22
  3376  001B08  CFEA F127          	movff	fsr0h+0,??_IntServe+3
  3377  001B0C  CFE1 F128          	movff	fsr1l+0,??_IntServe+4
  3378  001B10  CFE2 F129          	movff	fsr1h+0,??_IntServe+5
  3379  001B14  CFD9 F12A          	movff	fsr2l+0,??_IntServe+6
  3380  001B18  CFDA F12B          	movff	fsr2h+0,??_IntServe+7
  3381  001B1C  CFF3 F12C          	movff	prodl+0,??_IntServe+8
  3382  001B20  CFF4 F12D          	movff	prodh+0,??_IntServe+9
  3383  001B24  CFF6 F12E          	movff	tblptrl+0,??_IntServe+10
  3384  001B28  CFF7 F12F          	movff	tblptrh+0,??_IntServe+11
  3385  001B2C  CFF8 F130          	movff	tblptru+0,??_IntServe+12
  3386                           	line	216
  3387                           ;main.c: 216: if (TMR0IF)
  3388  001B30  A4F2               	btfss	c:(32658/8),(32658)&7	;volatile
  3389  001B32  D001               	goto	i2u2771
  3390  001B34  D001               	goto	i2u2770
  3391  001B36                     i2u2771:
  3392  001B36  D086               	goto	i2l428
  3393  001B38                     i2u2770:
  3394                           	line	218
  3395                           ;main.c: 217: {
  3396                           ;main.c: 218: timer0_load();
  3397  001B38  ECCE  F012         	call	i2_timer0_load	;wreg free
  3398                           	line	219
  3399                           ;main.c: 219: TMR0IF = 0;
  3400  001B3C  94F2               	bcf	c:(32658/8),(32658)&7	;volatile
  3401                           	line	221
  3402                           ;main.c: 221: g_audio_ticks++;
  3403  001B3E  0E01               	movlw	01h
  3404  001B40  266A               	addwf	((c:106)),c	;volatile
  3405  001B42  0E00               	movlw	0
  3406  001B44  226B               	addwfc	((c:106+1)),c	;volatile
  3407  001B46  0E00               	movlw	0
  3408  001B48  226C               	addwfc	((c:106+2)),c	;volatile
  3409  001B4A  0E00               	movlw	0
  3410  001B4C  226D               	addwfc	((c:106+3)),c	;volatile
  3411                           	line	222
  3412                           ;main.c: 222: g_step_accum++;
  3413  001B4E  0E01               	movlw	01h
  3414  001B50  2670               	addwf	((c:112)),c	;volatile
  3415  001B52  0E00               	movlw	0
  3416  001B54  2271               	addwfc	((c:112+1)),c	;volatile
  3417  001B56  0E00               	movlw	0
  3418  001B58  2272               	addwfc	((c:112+2)),c	;volatile
  3419  001B5A  0E00               	movlw	0
  3420  001B5C  2273               	addwfc	((c:112+3)),c	;volatile
  3421                           	line	224
  3422                           ;main.c: 224: if (g_step_accum >= g_samples_per_
                                 step)
  3423  001B5E  5074               	movf	((c:116)),c,w	;volatile
  3424  001B60  5C70               	subwf	((c:112)),c,w	;volatile
  3425  001B62  5075               	movf	((c:116+1)),c,w	;volatile
  3426  001B64  5871               	subwfb	((c:112+1)),c,w	;volatile
  3427  001B66  5076               	movf	((c:116+2)),c,w	;volatile
  3428  001B68  5872               	subwfb	((c:112+2)),c,w	;volatile
  3429  001B6A  5077               	movf	((c:116+3)),c,w	;volatile
  3430  001B6C  5873               	subwfb	((c:112+3)),c,w	;volatile
  3431  001B6E  A0D8               	btfss	status,0
  3432  001B70  D001               	goto	i2u2781
  3433  001B72  D001               	goto	i2u2780
  3434  001B74                     i2u2781:
  3435  001B74  D065               	goto	i2l429
  3436  001B76                     i2u2780:
  3437                           	line	227
  3438                           ;main.c: 225: {
  3439                           ;main.c: 227: g_step_accum -= g_samples_per_step
                                 ;
  3440  001B76  5074               	movf	((c:116)),c,w	;volatile
  3441  001B78  5E70               	subwf	((c:112)),c	;volatile
  3442  001B7A  5075               	movf	((c:116+1)),c,w	;volatile
  3443  001B7C  5A71               	subwfb	((c:112+1)),c	;volatile
  3444  001B7E  5076               	movf	((c:116+2)),c,w	;volatile
  3445  001B80  5A72               	subwfb	((c:112+2)),c	;volatile
  3446  001B82  5077               	movf	((c:116+3)),c,w	;volatile
  3447  001B84  5A73               	subwfb	((c:112+3)),c	;volatile
  3448                           	line	228
  3449                           ;main.c: 228: g_step++;
  3450  001B86  2A07               	incf	((c:7)),c	;volatile
  3451                           	line	231
  3452                           ;main.c: 231: if (g_step >= g_pattern_steps) g_s
                                 tep = 0;
  3453  001B88  0100               	movlb	0	; () banked
  3454  001B8A  0100               	movlb	0	; () banked
  3455  001B8C  5180               	movf	((128))&0ffh,w	;volatile
  3456  001B8E  5C07               	subwf	((c:7)),c,w	;volatile
  3457  001B90  A0D8               	btfss	status,0
  3458  001B92  D001               	goto	i2u2791
  3459  001B94  D001               	goto	i2u2790
  3460  001B96                     i2u2791:
  3461  001B96  D002               	goto	i2l430
  3462  001B98                     i2u2790:
  3463  001B98  0E00               	movlw	low(0)
  3464  001B9A  6E07               	movwf	((c:7)),c	;volatile
  3465                           	
  3466  001B9C                     i2l430:		; BSR set to: ?
  3467                           
  3468                           	line	234
  3469                           ;main.c: 234: if (g_kick_pattern[g_step]) g_kick
                                 _trigger = 1;
  3470  001B9C  0E2A               	movlw	low((c:42))	;volatile
  3471  001B9E  2407               	addwf	((c:7)),c,w	;volatile
  3472  001BA0  6EE9               	movwf	c:fsr0l
  3473  001BA2  6AEA               	clrf	1+c:fsr0l
  3474  001BA4  0E00               	movlw	high((c:42))	;volatile
  3475  001BA6  22EA               	addwfc	1+c:fsr0l
  3476  001BA8  50EF               	movf	indf0,w
  3477  001BAA  B4D8               	btfsc	status,2
  3478  001BAC  D001               	goto	i2u2801
  3479  001BAE  D001               	goto	i2u2800
  3480  001BB0                     i2u2801:
  3481  001BB0  D002               	goto	i2l431
  3482  001BB2                     i2u2800:
  3483  001BB2  0E01               	movlw	low(01h)
  3484  001BB4  6E09               	movwf	((c:9)),c	;volatile
  3485                           	
  3486  001BB6                     i2l431:		; BSR set to: ?
  3487                           
  3488                           	line	235
  3489                           ;main.c: 235: if (g_snare_pattern[g_step]) g_sna
                                 re_trigger = 1;
  3490  001BB6  0E0A               	movlw	low((c:10))	;volatile
  3491  001BB8  2407               	addwf	((c:7)),c,w	;volatile
  3492  001BBA  6EE9               	movwf	c:fsr0l
  3493  001BBC  6AEA               	clrf	1+c:fsr0l
  3494  001BBE  0E00               	movlw	high((c:10))	;volatile
  3495  001BC0  22EA               	addwfc	1+c:fsr0l
  3496  001BC2  50EF               	movf	indf0,w
  3497  001BC4  B4D8               	btfsc	status,2
  3498  001BC6  D001               	goto	i2u2811
  3499  001BC8  D001               	goto	i2u2810
  3500  001BCA                     i2u2811:
  3501  001BCA  D002               	goto	i2l432
  3502  001BCC                     i2u2810:
  3503  001BCC  0E01               	movlw	low(01h)
  3504  001BCE  6E08               	movwf	((c:8)),c	;volatile
  3505                           	
  3506  001BD0                     i2l432:		; BSR set to: ?
  3507                           
  3508                           	line	236
  3509                           ;main.c: 236: if (g_hihat_pattern[g_step]) g_hih
                                 at_trigger = 1;
  3510  001BD0  0E4A               	movlw	low((c:74))	;volatile
  3511  001BD2  2407               	addwf	((c:7)),c,w	;volatile
  3512  001BD4  6EE9               	movwf	c:fsr0l
  3513  001BD6  6AEA               	clrf	1+c:fsr0l
  3514  001BD8  0E00               	movlw	high((c:74))	;volatile
  3515  001BDA  22EA               	addwfc	1+c:fsr0l
  3516  001BDC  50EF               	movf	indf0,w
  3517  001BDE  B4D8               	btfsc	status,2
  3518  001BE0  D001               	goto	i2u2821
  3519  001BE2  D001               	goto	i2u2820
  3520  001BE4                     i2u2821:
  3521  001BE4  D002               	goto	i2l433
  3522  001BE6                     i2u2820:
  3523  001BE6  0E01               	movlw	low(01h)
  3524  001BE8  6E06               	movwf	((c:6)),c	;volatile
  3525                           	
  3526  001BEA                     i2l433:		; BSR set to: ?
  3527                           
  3528                           	line	238
  3529                           ;main.c: 238: if (g_kick_trigger)
  3530  001BEA  5009               	movf	((c:9)),c,w	;volatile
  3531  001BEC  B4D8               	btfsc	status,2
  3532  001BEE  D001               	goto	i2u2831
  3533  001BF0  D001               	goto	i2u2830
  3534  001BF2                     i2u2831:
  3535  001BF2  D010               	goto	i2l434
  3536  001BF4                     i2u2830:
  3537                           	line	240
  3538                           ;main.c: 239: {
  3539                           ;main.c: 240: g_kick_env = 1100;
  3540  001BF4  0E4C               	movlw	low(044Ch)
  3541  001BF6  6E02               	movwf	((c:2)),c	;volatile
  3542  001BF8  0E04               	movlw	high(044Ch)
  3543  001BFA  6E03               	movwf	((c:2+1)),c	;volatile
  3544                           	line	241
  3545                           ;main.c: 241: g_kick_half_period = 45;
  3546  001BFC  0E2D               	movlw	low(02Dh)
  3547  001BFE  6E7A               	movwf	((c:122)),c	;volatile
  3548  001C00  0E00               	movlw	high(02Dh)
  3549  001C02  6E7B               	movwf	((c:122+1)),c	;volatile
  3550                           	line	242
  3551                           ;main.c: 242: g_kick_counter = g_kick_half_perio
                                 d;
  3552  001C04  C07A F004          	movff	(c:122),(c:4)	;volatile
  3553  001C08  C07B F005          	movff	(c:122+1),(c:4+1)	;volatile
  3554                           	line	243
  3555                           ;main.c: 243: g_kick_polarity = 1;
  3556  001C0C  0E01               	movlw	low(01h)
  3557  001C0E  6E7F               	movwf	((c:127)),c	;volatile
  3558                           	line	244
  3559                           ;main.c: 244: g_kick_trigger = 0;
  3560  001C10  0E00               	movlw	low(0)
  3561  001C12  6E09               	movwf	((c:9)),c	;volatile
  3562                           	line	245
  3563                           	
  3564  001C14                     i2l434:		; BSR set to: ?
  3565                           
  3566                           	line	246
  3567                           ;main.c: 245: }
  3568                           ;main.c: 246: if (g_snare_trigger) {g_snare_env 
                                 = 1000; g_snare_trigger = 0;}
  3569  001C14  5008               	movf	((c:8)),c,w	;volatile
  3570  001C16  B4D8               	btfsc	status,2
  3571  001C18  D001               	goto	i2u2841
  3572  001C1A  D001               	goto	i2u2840
  3573  001C1C                     i2u2841:
  3574  001C1C  D006               	goto	i2l435
  3575  001C1E                     i2u2840:
  3576  001C1E  0EE8               	movlw	low(03E8h)
  3577  001C20  6E00               	movwf	((c:0)),c	;volatile
  3578  001C22  0E03               	movlw	high(03E8h)
  3579  001C24  6E01               	movwf	((c:0+1)),c	;volatile
  3580  001C26  0E00               	movlw	low(0)
  3581  001C28  6E08               	movwf	((c:8)),c	;volatile
  3582                           	
  3583  001C2A                     i2l435:		; BSR set to: ?
  3584                           
  3585                           	line	247
  3586                           ;main.c: 247: if (g_hihat_trigger) {g_hihat_env 
                                 = 500; g_hihat_trigger = 0;}
  3587  001C2A  5006               	movf	((c:6)),c,w	;volatile
  3588  001C2C  B4D8               	btfsc	status,2
  3589  001C2E  D001               	goto	i2u2851
  3590  001C30  D001               	goto	i2u2850
  3591  001C32                     i2u2851:
  3592  001C32  D006               	goto	i2l429
  3593  001C34                     i2u2850:
  3594  001C34  0EF4               	movlw	low(01F4h)
  3595  001C36  6E6E               	movwf	((c:110)),c	;volatile
  3596  001C38  0E01               	movlw	high(01F4h)
  3597  001C3A  6E6F               	movwf	((c:110+1)),c	;volatile
  3598  001C3C  0E00               	movlw	low(0)
  3599  001C3E  6E06               	movwf	((c:6)),c	;volatile
  3600                           	
  3601  001C40                     i2l436:		; BSR set to: ?
  3602                           
  3603                           	line	248
  3604                           	
  3605  001C40                     i2l429:		; BSR set to: ?
  3606                           
  3607                           	line	249
  3608                           ;main.c: 248: }
  3609                           ;main.c: 249: update_audio_output();
  3610  001C40  ECF1  F009         	call	_update_audio_output	;wreg free
  3611                           	line	250
  3612                           	
  3613  001C44                     i2l428:		; BSR set to: ?
  3614                           
  3615                           	line	251
  3616                           ;main.c: 250: }
  3617                           ;main.c: 251: }
  3618  001C44                     i2l427:
  3619                           			; BSR set to: ?
  3620                           
  3621  001C44  C130  FFF8         	movff	??_IntServe+12,tblptru+0
  3622  001C48  C12F  FFF7         	movff	??_IntServe+11,tblptrh+0
  3623  001C4C  C12E  FFF6         	movff	??_IntServe+10,tblptrl+0
  3624  001C50  C12D  FFF4         	movff	??_IntServe+9,prodh+0
  3625  001C54  C12C  FFF3         	movff	??_IntServe+8,prodl+0
  3626  001C58  C12B  FFDA         	movff	??_IntServe+7,fsr2h+0
  3627  001C5C  C12A  FFD9         	movff	??_IntServe+6,fsr2l+0
  3628  001C60  C129  FFE2         	movff	??_IntServe+5,fsr1h+0
  3629  001C64  C128  FFE1         	movff	??_IntServe+4,fsr1l+0
  3630  001C68  C127  FFEA         	movff	??_IntServe+3,fsr0h+0
  3631  001C6C  C126  FFE9         	movff	??_IntServe+2,fsr0l+0
  3632  001C70  C125  FFFB         	movff	??_IntServe+1,pclat+1
  3633  001C74  C124  FFFA         	movff	??_IntServe+0,pclat+0
  3634  001C78  0011               	retfie f
  3635                           	opt stack 0
  3636                           GLOBAL __end_of_IntServe
  3637  001C7A                     	__end_of_IntServe:
  3638                           	FNSIZE	_IntServe,13,0
  3639                           ; =============== function _IntServe ends ======
                                 ======
  3640                           
  3641                           	signat	_IntServe,88
  3642                                   psect   text23,class=CODE,space=0,reloc=
                                 2
  3643                           	global	intlevel2
  3644                           
  3645                           	opt lm
  3646                           	FNBREAK _update_audio_output,intlevel2
  3647                           	global	_update_audio_output
  3648                           	global	??_update_audio_output
  3649                           	global	?_update_audio_output
  3650                           	file	"C:\Users\anton\OneDrive\Desktop\Comp_Sci_
                                 Studies\spring_2026\ece_376\term_project\src\mai
                                 n.c"
  3651                           	line	159
  3652  000000                     	__size_of_update_audio_output	equ	__end_of_upda
                                 te_audio_output-_update_audio_output
  3653                           ;main.c: 158: static void update_audio_output(vo
                                 id)
  3654                           ;main.c: 159: {
  3655                           	
  3656  0013E2                     _update_audio_output:		; BSR set to: ?
  3657                           
  3658                           	opt stack 30
  3659                           	line	160
  3660  0013E2  0E00               	movlw	low(0)
  3661  0013E4  0101               	movlb	1	; () banked
  3662  0013E6  0101               	movlb	1	; () banked
  3663  0013E8  6F33               	movwf	((update_audio_output@drum_sample))&0ffh
  3664  0013EA  0E00               	movlw	high(0)
  3665  0013EC  0101               	movlb	1	; () banked
  3666  0013EE  6F34               	movwf	((update_audio_output@drum_sample+1))&0ff
                                 h
  3667                           	line	164
  3668                           ;main.c: 161: signed int noise;
  3669                           ;main.c: 164: g_noise_lfsr = (g_noise_lfsr >> 1)
                                  ^ (-(signed int)(g_noise_lfsr & 1U) & 0xB400U);
  3670  0013F0  0E01               	movlw	01h
  3671  0013F2  147C               	andwf	((c:124)),c,w	;volatile
  3672  0013F4  0101               	movlb	1	; () banked
  3673  0013F6  6F35               	movwf	(??_update_audio_output+4+0)&0ffh
  3674  0013F8  0E00               	movlw	0
  3675  0013FA  147D               	andwf	((c:124+1)),c,w	;volatile
  3676  0013FC  0101               	movlb	1	; () banked
  3677  0013FE  6F36               	movwf	(??_update_audio_output+4+0+1)&0ffh
  3678  001400  0101               	movlb	1	; () banked
  3679  001402  1F35               	comf	(??_update_audio_output+4+0)&0ffh
  3680  001404  1F36               	comf	(??_update_audio_output+4+1)&0ffh
  3681  001406  4B35               	infsnz	(??_update_audio_output+4+0)&0ffh
  3682  001408  2B36               	incf	(??_update_audio_output+4+1)&0ffh
  3683  00140A  0E00               	movlw	0
  3684  00140C  0101               	movlb	1	; () banked
  3685  00140E  1535               	andwf	(??_update_audio_output+4+0)&0ffh,w
  3686  001410  0101               	movlb	1	; () banked
  3687  001412  6F37               	movwf	(??_update_audio_output+6+0)&0ffh
  3688  001414  0EB4               	movlw	0B4h
  3689  001416  0101               	movlb	1	; () banked
  3690  001418  1536               	andwf	(??_update_audio_output+4+1)&0ffh,w
  3691  00141A  0101               	movlb	1	; () banked
  3692  00141C  6F38               	movwf	1+(??_update_audio_output+6+0)&0ffh
  3693  00141E  90D8               	bcf	status,0
  3694  001420  307D               	rrcf	((c:124+1)),c,w	;volatile
  3695  001422  0101               	movlb	1	; () banked
  3696  001424  6F3A               	movwf	(??_update_audio_output+8+0+1)&0ffh
  3697  001426  307C               	rrcf	((c:124)),c,w	;volatile
  3698  001428  0101               	movlb	1	; () banked
  3699  00142A  6F39               	movwf	(??_update_audio_output+8+0)&0ffh
  3700  00142C  0101               	movlb	1	; () banked
  3701  00142E  5137               	movf	(??_update_audio_output+6+0)&0ffh,w
  3702  001430  0101               	movlb	1	; () banked
  3703  001432  1939               	xorwf	(??_update_audio_output+8+0)&0ffh,w
  3704                           	
  3705  001434  6E7C               	movwf	((c:124)),c	;volatile
  3706  001436  0101               	movlb	1	; () banked
  3707  001438  5138               	movf	(??_update_audio_output+6+1)&0ffh,w
  3708  00143A  0101               	movlb	1	; () banked
  3709  00143C  193A               	xorwf	(??_update_audio_output+8+1)&0ffh,w
  3710  00143E  6E7D               	movwf	1+((c:124)),c	;volatile
  3711                           	line	167
  3712                           ;main.c: 167: noise = (g_noise_lfsr & 1U) ? 1 : 
                                 -1;
  3713  001440  0101               	movlb	1	; () banked
  3714  001442  0101               	movlb	1	; () banked
  3715  001444  6931               	setf	((update_audio_output@noise))&0ffh
  3716  001446  0101               	movlb	1	; () banked
  3717  001448  6932               	setf	((update_audio_output@noise+1))&0ffh
  3718                           	
  3719  00144A  A07C               	btfss	((c:124)),c,(0)&7	;volatile
  3720  00144C  D001               	goto	i2u2681
  3721  00144E  D001               	goto	i2u2680
  3722  001450                     i2u2681:
  3723  001450  D007               	goto	i2l500000267
  3724  001452                     i2u2680:
  3725  001452  0E01               	movlw	low(01h)
  3726  001454  0101               	movlb	1	; () banked
  3727  001456  0101               	movlb	1	; () banked
  3728  001458  6F31               	movwf	((update_audio_output@noise))&0ffh
  3729  00145A  0E00               	movlw	high(01h)
  3730  00145C  0101               	movlb	1	; () banked
  3731  00145E  6F32               	movwf	((update_audio_output@noise+1))&0ffh
  3732                           	
  3733  001460                     i2l500000267:		; BSR set to: ?
  3734                           
  3735                           	line	170
  3736                           ;main.c: 170: if (g_kick_env > 0)
  3737  001460  5003               	movf	((c:2+1)),c,w	;volatile
  3738  001462  1002               	iorwf ((c:2)),c,w	;volatile
  3739                           
  3740  001464  B4D8               	btfsc	status,2
  3741  001466  D001               	goto	i2u2691
  3742  001468  D001               	goto	i2u2690
  3743  00146A                     i2u2691:
  3744  00146A  D051               	goto	i2l415
  3745  00146C                     i2u2690:
  3746                           	line	174
  3747                           ;main.c: 171: {
  3748                           ;main.c: 174: if (g_kick_counter == 0)
  3749  00146C  5005               	movf	((c:4+1)),c,w	;volatile
  3750  00146E  1004               	iorwf ((c:4)),c,w	;volatile
  3751                           
  3752  001470  A4D8               	btfss	status,2
  3753  001472  D001               	goto	i2u2701
  3754  001474  D001               	goto	i2u2700
  3755  001476                     i2u2701:
  3756  001476  D010               	goto	i2l416
  3757  001478                     i2u2700:
  3758                           	line	176
  3759                           ;main.c: 175: {
  3760                           ;main.c: 176: g_kick_counter = g_kick_half_perio
                                 d;
  3761  001478  C07A F004          	movff	(c:122),(c:4)	;volatile
  3762  00147C  C07B F005          	movff	(c:122+1),(c:4+1)	;volatile
  3763                           	line	177
  3764                           ;main.c: 177: g_kick_polarity = -g_kick_polarity
                                 ;
  3765  001480  6C7F               	negf	((c:127)),c	;volatile
  3766                           	line	180
  3767                           ;main.c: 180: if (g_kick_half_period < 180) g_ki
                                 ck_half_period++;
  3768  001482  0EB4               	movlw	0B4h
  3769  001484  5C7A               	subwf	((c:122)),c,w	;volatile
  3770  001486  0E00               	movlw	0
  3771  001488  587B               	subwfb	((c:122+1)),c,w	;volatile
  3772  00148A  B0D8               	btfsc	status,0
  3773  00148C  D001               	goto	i2u2711
  3774  00148E  D001               	goto	i2u2710
  3775  001490                     i2u2711:
  3776  001490  D002               	goto	i2l417
  3777  001492                     i2u2710:
  3778  001492  4A7A               	infsnz	((c:122)),c	;volatile
  3779  001494  2A7B               	incf	((c:122+1)),c	;volatile
  3780                           	
  3781  001496                     i2l417:		; BSR set to: ?
  3782                           
  3783                           	line	181
  3784                           ;main.c: 181: }
  3785  001496  D003               	goto	i2l418
  3786                           	line	183
  3787                           	
  3788  001498                     i2l416:		; BSR set to: ?
  3789                           
  3790                           ;main.c: 183: else g_kick_counter--;
  3791  001498  0604               	decf	((c:4)),c	;volatile
  3792  00149A  A0D8               	btfss	status,0
  3793  00149C  0605               	decf	((c:4+1)),c	;volatile
  3794                           	
  3795  00149E                     i2l418:		; BSR set to: ?
  3796                           
  3797                           	line	185
  3798                           ;main.c: 185: drum_sample += (signed int)g_kick_
                                 polarity * (signed int) (g_kick_env >> 2);
  3799  00149E  C002 F135          	movff	(c:2),??_update_audio_output+4+0	;volatil
                                 e
  3800  0014A2  C003 F136          	movff	(c:2+1),??_update_audio_output+4+0+1	;vol
                                 atile
  3801  0014A6  90D8               	bcf	status,0
  3802  0014A8  0101               	movlb	1	; () banked
  3803  0014AA  3336               	rrcf	(??_update_audio_output+4+1)&0ffh
  3804  0014AC  3335               	rrcf	(??_update_audio_output+4+0)&0ffh
  3805  0014AE  90D8               	bcf	status,0
  3806  0014B0  0101               	movlb	1	; () banked
  3807  0014B2  3336               	rrcf	(??_update_audio_output+4+1)&0ffh
  3808  0014B4  3335               	rrcf	(??_update_audio_output+4+0)&0ffh
  3809  0014B6  C135  F13D         	movff	??_update_audio_output+4+0,0+(?___wmul+02
                                 h)
  3810  0014BA  C136  F13E         	movff	??_update_audio_output+4+1,1+(?___wmul+02
                                 h)
  3811  0014BE  507F               	movf	((c:127)),c,w	;volatile
  3812  0014C0  0101               	movlb	1	; () banked
  3813  0014C2  0101               	movlb	1	; () banked
  3814  0014C4  6F3B               	movwf	((?___wmul))&0ffh
  3815  0014C6  0101               	movlb	1	; () banked
  3816  0014C8  6B3C               	clrf	((?___wmul+1))&0ffh
  3817  0014CA  0101               	movlb	1	; () banked
  3818  0014CC  BF3B               	btfsc	((?___wmul))&0ffh,7
  3819  0014CE  073C               	decf	((?___wmul+1))&0ffh
  3820  0014D0  ECA4  F011         	call	___wmul	;wreg free
  3821  0014D4  0101               	movlb	1	; () banked
  3822  0014D6  0101               	movlb	1	; () banked
  3823  0014D8  513B               	movf	(0+?___wmul)&0ffh,w
  3824  0014DA  0101               	movlb	1	; () banked
  3825  0014DC  0101               	movlb	1	; () banked
  3826  0014DE  2733               	addwf	((update_audio_output@drum_sample))&0ffh
  3827  0014E0  0101               	movlb	1	; () banked
  3828  0014E2  0101               	movlb	1	; () banked
  3829  0014E4  513C               	movf	(1+?___wmul)&0ffh,w
  3830  0014E6  0101               	movlb	1	; () banked
  3831  0014E8  0101               	movlb	1	; () banked
  3832  0014EA  2334               	addwfc	((update_audio_output@drum_sample+1))&0f
                                 fh
  3833                           
  3834                           	line	186
  3835                           ;main.c: 186: if (g_kick_env > 4) g_kick_env -= 
                                 4; else g_kick_env = 0;
  3836  0014EC  0E05               	movlw	05h
  3837  0014EE  5C02               	subwf	((c:2)),c,w	;volatile
  3838  0014F0  0E00               	movlw	0
  3839  0014F2  5803               	subwfb	((c:2+1)),c,w	;volatile
  3840  0014F4  A0D8               	btfss	status,0
  3841  0014F6  D001               	goto	i2u2721
  3842  0014F8  D001               	goto	i2u2720
  3843  0014FA                     i2u2721:
  3844  0014FA  D005               	goto	i2l419
  3845  0014FC                     i2u2720:
  3846  0014FC  0E04               	movlw	04h
  3847  0014FE  5E02               	subwf	((c:2)),c	;volatile
  3848  001500  0E00               	movlw	0
  3849  001502  5A03               	subwfb	((c:2+1)),c	;volatile
  3850  001504  D004               	goto	i2l415
  3851                           	
  3852  001506                     i2l419:		; BSR set to: ?
  3853                           
  3854  001506  0E00               	movlw	low(0)
  3855  001508  6E02               	movwf	((c:2)),c	;volatile
  3856  00150A  0E00               	movlw	high(0)
  3857  00150C  6E03               	movwf	((c:2+1)),c	;volatile
  3858                           	
  3859  00150E                     i2l420:		; BSR set to: ?
  3860                           
  3861                           	line	187
  3862                           	
  3863  00150E                     i2l415:		; BSR set to: ?
  3864                           
  3865                           	line	190
  3866                           ;main.c: 187: }
  3867                           ;main.c: 190: if (g_snare_env > 0)
  3868  00150E  5001               	movf	((c:0+1)),c,w	;volatile
  3869  001510  1000               	iorwf ((c:0)),c,w	;volatile
  3870                           
  3871  001512  B4D8               	btfsc	status,2
  3872  001514  D001               	goto	i2u2731
  3873  001516  D001               	goto	i2u2730
  3874  001518                     i2u2731:
  3875  001518  D033               	goto	i2l421
  3876  00151A                     i2u2730:
  3877                           	line	192
  3878                           ;main.c: 191: {
  3879                           ;main.c: 192: drum_sample += noise * (signed int
                                 )(g_snare_env >> 2);
  3880  00151A  C131  F13D         	movff	(update_audio_output@noise),0+(?___wmul+0
                                 2h)
  3881  00151E  C132  F13E         	movff	(update_audio_output@noise+1),1+(?___wmul
                                 +02h)
  3882  001522  C000 F135          	movff	(c:0),??_update_audio_output+4+0	;volatil
                                 e
  3883  001526  C001 F136          	movff	(c:0+1),??_update_audio_output+4+0+1	;vol
                                 atile
  3884  00152A  90D8               	bcf	status,0
  3885  00152C  0101               	movlb	1	; () banked
  3886  00152E  3336               	rrcf	(??_update_audio_output+4+1)&0ffh
  3887  001530  3335               	rrcf	(??_update_audio_output+4+0)&0ffh
  3888  001532  90D8               	bcf	status,0
  3889  001534  0101               	movlb	1	; () banked
  3890  001536  3336               	rrcf	(??_update_audio_output+4+1)&0ffh
  3891  001538  3335               	rrcf	(??_update_audio_output+4+0)&0ffh
  3892  00153A  C135  F13B         	movff	??_update_audio_output+4+0,(?___wmul)
  3893  00153E  C136  F13C         	movff	??_update_audio_output+4+1,(?___wmul+1)
  3894  001542  ECA4  F011         	call	___wmul	;wreg free
  3895  001546  0101               	movlb	1	; () banked
  3896  001548  0101               	movlb	1	; () banked
  3897  00154A  513B               	movf	(0+?___wmul)&0ffh,w
  3898  00154C  0101               	movlb	1	; () banked
  3899  00154E  0101               	movlb	1	; () banked
  3900  001550  2733               	addwf	((update_audio_output@drum_sample))&0ffh
  3901  001552  0101               	movlb	1	; () banked
  3902  001554  0101               	movlb	1	; () banked
  3903  001556  513C               	movf	(1+?___wmul)&0ffh,w
  3904  001558  0101               	movlb	1	; () banked
  3905  00155A  0101               	movlb	1	; () banked
  3906  00155C  2334               	addwfc	((update_audio_output@drum_sample+1))&0f
                                 fh
  3907                           
  3908                           	line	193
  3909                           ;main.c: 193: if (g_snare_env > 8) g_snare_env -
                                 = 8; else g_snare_env = 0;
  3910  00155E  0E09               	movlw	09h
  3911  001560  5C00               	subwf	((c:0)),c,w	;volatile
  3912  001562  0E00               	movlw	0
  3913  001564  5801               	subwfb	((c:0+1)),c,w	;volatile
  3914  001566  A0D8               	btfss	status,0
  3915  001568  D001               	goto	i2u2741
  3916  00156A  D001               	goto	i2u2740
  3917  00156C                     i2u2741:
  3918  00156C  D005               	goto	i2l422
  3919  00156E                     i2u2740:
  3920  00156E  0E08               	movlw	08h
  3921  001570  5E00               	subwf	((c:0)),c	;volatile
  3922  001572  0E00               	movlw	0
  3923  001574  5A01               	subwfb	((c:0+1)),c	;volatile
  3924  001576  D004               	goto	i2l421
  3925                           	
  3926  001578                     i2l422:		; BSR set to: ?
  3927                           
  3928  001578  0E00               	movlw	low(0)
  3929  00157A  6E00               	movwf	((c:0)),c	;volatile
  3930  00157C  0E00               	movlw	high(0)
  3931  00157E  6E01               	movwf	((c:0+1)),c	;volatile
  3932                           	
  3933  001580                     i2l423:		; BSR set to: ?
  3934                           
  3935                           	line	194
  3936                           	
  3937  001580                     i2l421:		; BSR set to: ?
  3938                           
  3939                           	line	197
  3940                           ;main.c: 194: }
  3941                           ;main.c: 197: if (g_hihat_env > 0)
  3942  001580  506F               	movf	((c:110+1)),c,w	;volatile
  3943  001582  106E               	iorwf ((c:110)),c,w	;volatile
  3944                           
  3945  001584  B4D8               	btfsc	status,2
  3946  001586  D001               	goto	i2u2751
  3947  001588  D001               	goto	i2u2750
  3948  00158A                     i2u2751:
  3949  00158A  D033               	goto	i2l424
  3950  00158C                     i2u2750:
  3951                           	line	199
  3952                           ;main.c: 198: {
  3953                           ;main.c: 199: drum_sample += noise * (signed int
                                 )(g_hihat_env >> 2);
  3954  00158C  C131  F13D         	movff	(update_audio_output@noise),0+(?___wmul+0
                                 2h)
  3955  001590  C132  F13E         	movff	(update_audio_output@noise+1),1+(?___wmul
                                 +02h)
  3956  001594  C06E F135          	movff	(c:110),??_update_audio_output+4+0	;volat
                                 ile
  3957  001598  C06F F136          	movff	(c:110+1),??_update_audio_output+4+0+1	;v
                                 olatile
  3958  00159C  90D8               	bcf	status,0
  3959  00159E  0101               	movlb	1	; () banked
  3960  0015A0  3336               	rrcf	(??_update_audio_output+4+1)&0ffh
  3961  0015A2  3335               	rrcf	(??_update_audio_output+4+0)&0ffh
  3962  0015A4  90D8               	bcf	status,0
  3963  0015A6  0101               	movlb	1	; () banked
  3964  0015A8  3336               	rrcf	(??_update_audio_output+4+1)&0ffh
  3965  0015AA  3335               	rrcf	(??_update_audio_output+4+0)&0ffh
  3966  0015AC  C135  F13B         	movff	??_update_audio_output+4+0,(?___wmul)
  3967  0015B0  C136  F13C         	movff	??_update_audio_output+4+1,(?___wmul+1)
  3968  0015B4  ECA4  F011         	call	___wmul	;wreg free
  3969  0015B8  0101               	movlb	1	; () banked
  3970  0015BA  0101               	movlb	1	; () banked
  3971  0015BC  513B               	movf	(0+?___wmul)&0ffh,w
  3972  0015BE  0101               	movlb	1	; () banked
  3973  0015C0  0101               	movlb	1	; () banked
  3974  0015C2  2733               	addwf	((update_audio_output@drum_sample))&0ffh
  3975  0015C4  0101               	movlb	1	; () banked
  3976  0015C6  0101               	movlb	1	; () banked
  3977  0015C8  513C               	movf	(1+?___wmul)&0ffh,w
  3978  0015CA  0101               	movlb	1	; () banked
  3979  0015CC  0101               	movlb	1	; () banked
  3980  0015CE  2334               	addwfc	((update_audio_output@drum_sample+1))&0f
                                 fh
  3981                           
  3982                           	line	200
  3983                           ;main.c: 200: if (g_hihat_env > 20) g_hihat_env 
                                 -= 20; else g_hihat_env = 0;
  3984  0015D0  0E15               	movlw	015h
  3985  0015D2  5C6E               	subwf	((c:110)),c,w	;volatile
  3986  0015D4  0E00               	movlw	0
  3987  0015D6  586F               	subwfb	((c:110+1)),c,w	;volatile
  3988  0015D8  A0D8               	btfss	status,0
  3989  0015DA  D001               	goto	i2u2761
  3990  0015DC  D001               	goto	i2u2760
  3991  0015DE                     i2u2761:
  3992  0015DE  D005               	goto	i2l425
  3993  0015E0                     i2u2760:
  3994  0015E0  0E14               	movlw	014h
  3995  0015E2  5E6E               	subwf	((c:110)),c	;volatile
  3996  0015E4  0E00               	movlw	0
  3997  0015E6  5A6F               	subwfb	((c:110+1)),c	;volatile
  3998  0015E8  D004               	goto	i2l424
  3999                           	
  4000  0015EA                     i2l425:		; BSR set to: ?
  4001                           
  4002  0015EA  0E00               	movlw	low(0)
  4003  0015EC  6E6E               	movwf	((c:110)),c	;volatile
  4004  0015EE  0E00               	movlw	high(0)
  4005  0015F0  6E6F               	movwf	((c:110+1)),c	;volatile
  4006                           	
  4007  0015F2                     i2l426:		; BSR set to: ?
  4008                           
  4009                           	line	201
  4010                           	
  4011  0015F2                     i2l424:		; BSR set to: ?
  4012                           
  4013                           	line	204
  4014                           ;main.c: 201: }
  4015                           ;main.c: 204: drum_sample = clamp_audio(drum_sam
                                 ple);
  4016  0015F2  C133  F13B         	movff	(update_audio_output@drum_sample),(?_clam
                                 p_audio)
  4017  0015F6  C134  F13C         	movff	(update_audio_output@drum_sample+1),(?_cl
                                 amp_audio+1)
  4018  0015FA  ECD7  F011         	call	_clamp_audio	;wreg free
  4019  0015FE  C13B  F133         	movff	0+?_clamp_audio,(update_audio_output@drum
                                 _sample)
  4020  001602  C13C  F134         	movff	1+?_clamp_audio,(update_audio_output@drum
                                 _sample+1)
  4021                           	line	207
  4022                           ;main.c: 207: pwm_set_duty_ccp1(to_pwm_duty(drum
                                 _sample));
  4023  001606  C133  F13B         	movff	(update_audio_output@drum_sample),(?_to_p
                                 wm_duty)
  4024  00160A  C134  F13C         	movff	(update_audio_output@drum_sample+1),(?_to
                                 _pwm_duty+1)
  4025  00160E  ECAA  F012         	call	_to_pwm_duty	;wreg free
  4026  001612  C13B  F13B         	movff	0+?_to_pwm_duty,(?i2_pwm_set_duty_ccp1)
  4027  001616  C13C  F13C         	movff	1+?_to_pwm_duty,(?i2_pwm_set_duty_ccp1+1)
  4028  00161A  ECF3  F010         	call	i2_pwm_set_duty_ccp1	;wreg free
  4029                           	line	210
  4030                           ;main.c: 210: pwm_set_duty_ccp2(256U);
  4031  00161E  0E00               	movlw	low(0100h)
  4032  001620  0101               	movlb	1	; () banked
  4033  001622  0101               	movlb	1	; () banked
  4034  001624  6F3B               	movwf	((?i2_pwm_set_duty_ccp2))&0ffh
  4035  001626  0E01               	movlw	high(0100h)
  4036  001628  0101               	movlb	1	; () banked
  4037  00162A  6F3C               	movwf	((?i2_pwm_set_duty_ccp2+1))&0ffh
  4038  00162C  ECB8  F010         	call	i2_pwm_set_duty_ccp2	;wreg free
  4039                           	line	211
  4040                           ;main.c: 211: }
  4041  001630                     i2l414:
  4042                           			; BSR set to: ?
  4043                           
  4044  001630  0012               	return
  4045                           	opt stack 0
  4046                           GLOBAL __end_of_update_audio_output
  4047  001632                     	__end_of_update_audio_output:
  4048                           	FNSIZE	_update_audio_output,10,0
  4049                           ; =============== function _update_audio_output 
                                 ends ============
  4050                           
  4051                           	signat	_update_audio_output,88
  4052                                   psect   text24,class=CODE,space=0,reloc=
                                 2
  4053                           	global	intlevel2
  4054                           
  4055                           	opt lm
  4056                           	FNBREAK i2_timer0_load,intlevel2
  4057                           	global	i2_timer0_load
  4058                           	global	i2_timer0_load
  4059                           	global	??i2_timer0_load
  4060                           	global	?i2_timer0_load
  4061                           	file	"C:\Users\anton\OneDrive\Desktop\Comp_Sci_
                                 Studies\spring_2026\ece_376\term_project\src\mai
                                 n.c"
  4062                           	line	123
  4063  000000                     	__size_ofi2_timer0_load	equ	__end_ofi2_timer0_l
                                 oad-i2_timer0_load
  4064                           ;main.c: 122: static void timer0_load(void)
  4065                           ;main.c: 123: {
  4066                           	
  4067  00259C                     i2_timer0_load:		; BSR set to: ?
  4068                           
  4069                           	opt stack 30
  4070                           	line	124
  4071  00259C  0EFE               	movlw	low(0FEh)
  4072  00259E  6ED7               	movwf	((c:4055)),c	;volatile
  4073                           	line	125
  4074  0025A0  0E70               	movlw	low(070h)
  4075  0025A2  6ED6               	movwf	((c:4054)),c	;volatile
  4076                           	line	126
  4077  0025A4                     i2l408:
  4078                           			; BSR set to: ?
  4079                           
  4080  0025A4  0012               	return
  4081                           	opt stack 0
  4082                           GLOBAL __end_ofi2_timer0_load
  4083  0025A6                     	__end_ofi2_timer0_load:
  4084                           	FNSIZE	i2_timer0_load,0,0
  4085                           ; =============== function i2_timer0_load ends =
                                 ===========
  4086                           
  4087                           	signat	i2_timer0_load,88
  4088                                   psect   text25,class=CODE,space=0,reloc=
                                 2
  4089                           	global	intlevel2
  4090                           
  4091                           	opt lm
  4092                           	FNBREAK i2_pwm_set_duty_ccp1,intlevel2
  4093                           	global	i2_pwm_set_duty_ccp1
  4094                           	global	i2_pwm_set_duty_ccp1
  4095                           	global	??i2_pwm_set_duty_ccp1
  4096                           	global	?i2_pwm_set_duty_ccp1
  4097                           	file	"C:\Users\anton\OneDrive\Desktop\Comp_Sci_
                                 Studies\spring_2026\ece_376\term_project\src\mai
                                 n.c"
  4098                           	line	80
  4099  000000                     	__size_ofi2_pwm_set_duty_ccp1	equ	__end_ofi2_pw
                                 m_set_duty_ccp1-i2_pwm_set_duty_ccp1
  4100                           ;main.c: 79: static void pwm_set_duty_ccp1(unsig
                                 ned int duty10)
  4101                           ;main.c: 80: {
  4102                           	
  4103  0021E6                     i2_pwm_set_duty_ccp1:		; BSR set to: ?
  4104                           
  4105                           	opt stack 29
  4106                           	line	81
  4107  0021E6  0E00               	movlw	0
  4108  0021E8  0101               	movlb	1	; () banked
  4109  0021EA  0101               	movlb	1	; () banked
  4110  0021EC  5D3B               	subwf	((i2pwm_set_duty_ccp1@duty10))&0ffh,w
  4111  0021EE  0E02               	movlw	02h
  4112  0021F0  0101               	movlb	1	; () banked
  4113  0021F2  593C               	subwfb	((i2pwm_set_duty_ccp1@duty10+1))&0ffh,w
  4114  0021F4  A0D8               	btfss	status,0
  4115  0021F6  D001               	goto	i2u2861
  4116+ 0021F8  D001               	goto	i2u2860
  4117+ 0021FA                     i2u2861:
  4118+ 0021FA  D007               	goto	i2l403
  4119+ 0021FC                     i2u2860:
  4120+ 0021FC  0EFF               	movlw	low(01FFh)
  4121+ 0021FE  0101               	movlb	1	; () banked
  4122+ 002200  0101               	movlb	1	; () banked
  4123+ 002202  6F3B               	movwf	((i2pwm_set_duty_ccp1@duty10))&0ffh
  4124+ 002204  0E01               	movlw	high(01FFh)
  4125+ 002206  0101               	movlb	1	; () banked
  4126+ 002208  6F3C               	movwf	((i2pwm_set_duty_ccp1@duty10+1))&0ffh
  4127+                          	
  4128+ 00220A                     i2l403:		; BSR set to: ?
  4129+                          
  4130+                          	line	84
  4131+ 00220A  0101               	movlb	1	; () banked
  4132+ 00220C  C13B  F13D         	movff	(i2pwm_set_duty_ccp1@duty10),??i2_pwm_set
      +                          _duty_ccp1+0+0
  4133+ 002210  0101               	movlb	1	; () banked
  4134+ 002212  C13C  F13E         	movff	(i2pwm_set_duty_ccp1@duty10+1),??i2_pwm_s
      +                          et_duty_ccp1+0+0+1
  4135+ 002216  90D8               	bcf	status,0
  4136+ 002218  0101               	movlb	1	; () banked
  4137+ 00221A  333E               	rrcf	(??i2_pwm_set_duty_ccp1+0+1)&0ffh
  4138+ 00221C  333D               	rrcf	(??i2_pwm_set_duty_ccp1+0+0)&0ffh
  4139+ 00221E  90D8               	bcf	status,0
  4140+ 002220  0101               	movlb	1	; () banked
  4141+ 002222  333E               	rrcf	(??i2_pwm_set_duty_ccp1+0+1)&0ffh
  4142+ 002224  333D               	rrcf	(??i2_pwm_set_duty_ccp1+0+0)&0ffh
  4143+ 002226  0101               	movlb	1	; () banked
  4144+ 002228  513D               	movf	(??i2_pwm_set_duty_ccp1+0+0)&0ffh,w
  4145+ 00222A  6EBE               	movwf	((c:4030)),c	;volatile
  4146+                          	line	87
  4147+ 00222C  90D8               	bcf	status,0
  4148+ 00222E  0101               	movlb	1	; () banked
  4149+ 002230  0101               	movlb	1	; () banked
  4150+ 002232  313C               	rrcf	((i2pwm_set_duty_ccp1@duty10+1))&0ffh,w
  4151+ 002234  0101               	movlb	1	; () banked
  4152+ 002236  6F3E               	movwf	(??i2_pwm_set_duty_ccp1+0+0+1)&0ffh
  4153+ 002238  0101               	movlb	1	; () banked
  4154+ 00223A  0101               	movlb	1	; () banked
  4155+ 00223C  313B               	rrcf	((i2pwm_set_duty_ccp1@duty10))&0ffh,w
  4156+ 00223E  0101               	movlb	1	; () banked
  4157+ 002240  6F3D               	movwf	(??i2_pwm_set_duty_ccp1+0+0)&0ffh
  4158+ 002242  0101               	movlb	1	; () banked
  4159+ 002244  313D               	rrcf	(??i2_pwm_set_duty_ccp1+0+0)&0ffh,w
  4160+ 002246  9ABD               	bcf	c:(32237/8),(32237)&7
  4161+ 002248  A0D8               	btfss	status,0
  4162+ 00224A  D001               	goto	i2u2875
  4163+ 00224C  8ABD               	bsf	c:(32237/8),(32237)&7
  4164+ 00224E                     i2u2875:
  4165+                          	line	88
  4166+ 00224E  98BD               	bcf	c:(32236/8),(32236)&7
  4167+ 002250  0101               	movlb	1	; () banked
  4168+ 002252  0101               	movlb	1	; () banked
  4169+ 002254  A13B               	btfss	((i2pwm_set_duty_ccp1@duty10))&0ffh,0
  4170+ 002256  D001               	goto	i2u2885
  4171+ 002258  88BD               	bsf	c:(32236/8),(32236)&7
  4172+ 00225A                     i2u2885:
  4173+                          	line	89
  4174+ 00225A                     i2l402:
  4175+                          			; BSR set to: ?
  4176+                          
  4177+ 00225A  0012               	return
  4178+                          	opt stack 0
  4179+                          GLOBAL __end_ofi2_pwm_set_duty_ccp1
  4180+ 00225C                     	__end_ofi2_pwm_set_duty_ccp1:
  4181+                          	FNSIZE	i2_pwm_set_duty_ccp1,2,2
  4182+                          ; =============== function i2_pwm_set_duty_ccp1 
      +                          ends ============
  4183+                          
  4184+                          	signat	i2_pwm_set_duty_ccp1,4216
  4185+                                  psect   text26,class=CODE,space=0,reloc=
      +                          2
  4186+                          	global	intlevel2
  4187+                          
  4188+                          	opt lm
  4189+                          	FNBREAK i2_pwm_set_duty_ccp2,intlevel2
  4190+                          	global	i2_pwm_set_duty_ccp2
  4191+                          	global	i2_pwm_set_duty_ccp2
  4192+                          	global	??i2_pwm_set_duty_ccp2
  4193+                          	global	?i2_pwm_set_duty_ccp2
  4194+                          	file	"C:\Users\anton\OneDrive\Desktop\Comp_Sci_
      +                          Studies\spring_2026\ece_376\term_project\src\mai
      +                          n.c"
  4195+                          	line	93
  4196+ 000000                     	__size_ofi2_pwm_set_duty_ccp2	equ	__end_ofi2_pw
      +                          m_set_duty_ccp2-i2_pwm_set_duty_ccp2
  4197+                          ;main.c: 92: static void pwm_set_duty_ccp2(unsig
      +                          ned int duty10)
  4198+                          ;main.c: 93: {
  4199+                          	
  4200+ 002170                     i2_pwm_set_duty_ccp2:		; BSR set to: ?
  4201+                          
  4202+                          	opt stack 29
  4203+                          	line	94
  4204+ 002170  0E00               	movlw	0
  4205+ 002172  0101               	movlb	1	; () banked
  4206+ 002174  0101               	movlb	1	; () banked
  4207+ 002176  5D3B               	subwf	((i2pwm_set_duty_ccp2@duty10))&0ffh,w
  4208+ 002178  0E02               	movlw	02h
  4209+ 00217A  0101               	movlb	1	; () banked
  4210+ 00217C  593C               	subwfb	((i2pwm_set_duty_ccp2@duty10+1))&0ffh,w
  4211+ 00217E  A0D8               	btfss	status,0
  4212+ 002180  D001               	goto	i2u2921
  4213+ 002182  D001               	goto	i2u2920
  4214+ 002184                     i2u2921:
  4215+ 002184  D007               	goto	i2l405
  4216+ 002186                     i2u2920:
  4217+ 002186  0EFF               	movlw	low(01FFh)
  4218+ 002188  0101               	movlb	1	; () banked
  4219+ 00218A  0101               	movlb	1	; () banked
  4220+ 00218C  6F3B               	movwf	((i2pwm_set_duty_ccp2@duty10))&0ffh
  4221+ 00218E  0E01               	movlw	high(01FFh)
  4222+ 002190  0101               	movlb	1	; () banked
  4223+ 002192  6F3C               	movwf	((i2pwm_set_duty_ccp2@duty10+1))&0ffh
  4224+                          	
  4225+ 002194                     i2l405:		; BSR set to: ?
  4226+                          
  4227+                          	line	95
  4228+ 002194  0101               	movlb	1	; () banked
  4229+ 002196  C13B  F13D         	movff	(i2pwm_set_duty_ccp2@duty10),??i2_pwm_set
      +                          _duty_ccp2+0+0
  4230+ 00219A  0101               	movlb	1	; () banked
  4231+ 00219C  C13C  F13E         	movff	(i2pwm_set_duty_ccp2@duty10+1),??i2_pwm_s
      +                          et_duty_ccp2+0+0+1
  4232+ 0021A0  90D8               	bcf	status,0
  4233+ 0021A2  0101               	movlb	1	; () banked
  4234+ 0021A4  333E               	rrcf	(??i2_pwm_set_duty_ccp2+0+1)&0ffh
  4235+ 0021A6  333D               	rrcf	(??i2_pwm_set_duty_ccp2+0+0)&0ffh
  4236+ 0021A8  90D8               	bcf	status,0
  4237+ 0021AA  0101               	movlb	1	; () banked
  4238+ 0021AC  333E               	rrcf	(??i2_pwm_set_duty_ccp2+0+1)&0ffh
  4239+ 0021AE  333D               	rrcf	(??i2_pwm_set_duty_ccp2+0+0)&0ffh
  4240+ 0021B0  0101               	movlb	1	; () banked
  4241+ 0021B2  513D               	movf	(??i2_pwm_set_duty_ccp2+0+0)&0ffh,w
  4242+ 0021B4  6EBB               	movwf	((c:4027)),c	;volatile
  4243+                          	line	96
  4244+ 0021B6  90D8               	bcf	status,0
  4245+ 0021B8  0101               	movlb	1	; () banked
  4246+ 0021BA  0101               	movlb	1	; () banked
  4247+ 0021BC  313C               	rrcf	((i2pwm_set_duty_ccp2@duty10+1))&0ffh,w
  4248+ 0021BE  0101               	movlb	1	; () banked
  4249+ 0021C0  6F3E               	movwf	(??i2_pwm_set_duty_ccp2+0+0+1)&0ffh
  4250+ 0021C2  0101               	movlb	1	; () banked
  4251+ 0021C4  0101               	movlb	1	; () banked
  4252+ 0021C6  313B               	rrcf	((i2pwm_set_duty_ccp2@duty10))&0ffh,w
  4253+ 0021C8  0101               	movlb	1	; () banked
  4254+ 0021CA  6F3D               	movwf	(??i2_pwm_set_duty_ccp2+0+0)&0ffh
  4255+ 0021CC  0101               	movlb	1	; () banked
  4256+ 0021CE  313D               	rrcf	(??i2_pwm_set_duty_ccp2+0+0)&0ffh,w
  4257+ 0021D0  9ABA               	bcf	c:(32213/8),(32213)&7
  4258+ 0021D2  A0D8               	btfss	status,0
  4259+ 0021D4  D001               	goto	i2u2935
  4260+ 0021D6  8ABA               	bsf	c:(32213/8),(32213)&7
  4261+ 0021D8                     i2u2935:
  4262+                          	line	97
  4263+ 0021D8  98BA               	bcf	c:(32212/8),(32212)&7
  4264+ 0021DA  0101               	movlb	1	; () banked
  4265+ 0021DC  0101               	movlb	1	; () banked
  4266+ 0021DE  A13B               	btfss	((i2pwm_set_duty_ccp2@duty10))&0ffh,0
  4267+ 0021E0  D001               	goto	i2u2945
  4268+ 0021E2  88BA               	bsf	c:(32212/8),(32212)&7
  4269+ 0021E4                     i2u2945:
  4270+                          	line	98
  4271+ 0021E4                     i2l404:
  4272+                          			; BSR set to: ?
  4273+                          
  4274+ 0021E4  0012               	return
  4275+                          	opt stack 0
  4276+                          GLOBAL __end_ofi2_pwm_set_duty_ccp2
  4277+ 0021E6                     	__end_ofi2_pwm_set_duty_ccp2:
  4278+                          	FNSIZE	i2_pwm_set_duty_ccp2,2,2
  4279+                          ; =============== function i2_pwm_set_duty_ccp2 
      +                          ends ============
  4280+                          
  4281+                          	signat	i2_pwm_set_duty_ccp2,4216
  4282+                                  psect   text27,class=CODE,space=0,reloc=
      +                          2
  4283+                          	global	intlevel2
  4284+                          
  4285+                          	opt lm
  4286+                          	FNBREAK _to_pwm_duty,intlevel2
  4287+                          	global	_to_pwm_duty
  4288+                          	global	??_to_pwm_duty
  4289+                          	global	?_to_pwm_duty
  4290+                          	file	"C:\Users\anton\OneDrive\Desktop\Comp_Sci_
      +                          Studies\spring_2026\ece_376\term_project\src\mai
      +                          n.c"
  4291+                          	line	153
  4292+ 000000                     	__size_of_to_pwm_duty	equ	__end_of_to_pwm_duty-
      +                          _to_pwm_duty
  4293+                          ;main.c: 152: static unsigned int to_pwm_duty(si
      +                          gned int sample)
  4294+                          ;main.c: 153: {
  4295+                          	
  4296+ 002554                     _to_pwm_duty:		; BSR set to: ?
  4297+                          
  4298+                          	opt stack 29
  4299+                          	line	155
  4300+ 002554  0E00               	movlw	low(0100h)
  4301+ 002556  0101               	movlb	1	; () banked
  4302+ 002558  0101               	movlb	1	; () banked
  4303+ 00255A  253B               	addwf	((to_pwm_duty@sample))&0ffh,w
  4304+ 00255C  0101               	movlb	1	; () banked
  4305+                          	
  4306+ 00255E  0101               	movlb	1	; () banked
  4307+ 002560  6F3B               	movwf	((?_to_pwm_duty))&0ffh
  4308+ 002562  0E01               	movlw	high(0100h)
  4309+ 002564  0101               	movlb	1	; () banked
  4310+ 002566  0101               	movlb	1	; () banked
  4311+ 002568  213C               	addwfc	((to_pwm_duty@sample+1))&0ffh,w
  4312+ 00256A  0101               	movlb	1	; () banked
  4313+ 00256C  6F3C               	movwf	1+((?_to_pwm_duty))&0ffh
  4314+ 00256E  D000               	goto	i2l413
  4315+                          	line	156
  4316+                          ;main.c: 156: }
  4317+ 002570                     i2l413:
  4318+                          			; BSR set to: ?
  4319+                          
  4320+ 002570  0012               	return
  4321+                          	opt stack 0
  4322+                          GLOBAL __end_of_to_pwm_duty
  4323+ 002572                     	__end_of_to_pwm_duty:
  4324+                          	FNSIZE	_to_pwm_duty,0,2
  4325+                          ; =============== function _to_pwm_duty ends ===
      +                          =========
  4326+                          
  4327+                          	signat	_to_pwm_duty,4218
  4328+                                  psect   text28,class=CODE,space=0,reloc=
      +                          2
  4329+                          	global	intlevel2
  4330+                          
  4331+                          	opt lm
  4332+                          	FNBREAK ___wmul,intlevel2
  4333+                          	global	___wmul
  4334+                          	global	??___wmul
  4335+                          	global	?___wmul
  4336+                          	file	"C:\Program Files (x86)\HI-TECH Software\P
      +                          ICC-18\PRO\9.63\sources\wmul.c"
  4337+                          	line	3
  4338+ 000000                     	__size_of___wmul	equ	__end_of___wmul-___wmul
  4339+                          	
  4340+ 002348                     ___wmul:		; BSR set to: ?
  4341+                          
  4342+                          	opt stack 29
  4343+                          	line	4
  4344+ 002348  0E00               	movlw	low(0)
  4345+ 00234A  0101               	movlb	1	; () banked
  4346+ 00234C  0101               	movlb	1	; () banked
  4347+ 00234E  6F3F               	movwf	((___wmul@product))&0ffh
  4348+ 002350  0E00               	movlw	high(0)
  4349+ 002352  0101               	movlb	1	; () banked
  4350+ 002354  6F40               	movwf	((___wmul@product+1))&0ffh
  4351+                          	line	6
  4352+                          	
  4353+ 002356                     i2l781:		; BSR set to: ?
  4354+                          
  4355+                          	line	7
  4356+ 002356  0101               	movlb	1	; () banked
  4357+                          	
  4358+ 002358  0101               	movlb	1	; () banked
  4359+ 00235A  A13B               	btfss	((___wmul@multiplier))&0ffh,(0)&7
  4360+ 00235C  D001               	goto	i2u2951
  4361+ 00235E  D001               	goto	i2u2950
  4362+ 002360                     i2u2951:
  4363+ 002360  D00C               	goto	i2l782
  4364+ 002362                     i2u2950:
  4365+                          	line	8
  4366+ 002362  0101               	movlb	1	; () banked
  4367+ 002364  0101               	movlb	1	; () banked
  4368+ 002366  513D               	movf	((___wmul@multiplicand))&0ffh,w
  4369+ 002368  0101               	movlb	1	; () banked
  4370+ 00236A  0101               	movlb	1	; () banked
  4371+ 00236C  273F               	addwf	((___wmul@product))&0ffh
  4372+ 00236E  0101               	movlb	1	; () banked
  4373+ 002370  0101               	movlb	1	; () banked
  4374+ 002372  513E               	movf	((___wmul@multiplicand+1))&0ffh,w
  4375+ 002374  0101               	movlb	1	; () banked
  4376+ 002376  0101               	movlb	1	; () banked
  4377+ 002378  2340               	addwfc	((___wmul@product+1))&0ffh
  4378+                          
  4379+                          	
  4380+ 00237A                     i2l782:		; BSR set to: ?
  4381+                          
  4382+                          	line	9
  4383+ 00237A  0101               	movlb	1	; () banked
  4384+ 00237C  90D8               	bcf	status,0
  4385+ 00237E  0101               	movlb	1	; () banked
  4386+ 002380  373D               	rlcf	((___wmul@multiplicand))&0ffh
  4387+ 002382  0101               	movlb	1	; () banked
  4388+ 002384  373E               	rlcf	((___wmul@multiplicand+1))&0ffh
  4389+                          	line	10
  4390+ 002386  0101               	movlb	1	; () banked
  4391+ 002388  90D8               	bcf	status,0
  4392+ 00238A  0101               	movlb	1	; () banked
  4393+ 00238C  333C               	rrcf	((___wmul@multiplier+1))&0ffh
  4394+ 00238E  0101               	movlb	1	; () banked
  4395+ 002390  333B               	rrcf	((___wmul@multiplier))&0ffh
  4396+                          	line	11
  4397+ 002392  0101               	movlb	1	; () banked
  4398+ 002394  0101               	movlb	1	; () banked
  4399+ 002396  513C               	movf	((___wmul@multiplier+1))&0ffh,w
  4400+ 002398  113B               	iorwf ((___wmul@multiplier))&0ffh,w
  4401+                          
  4402+ 00239A  A4D8               	btfss	status,2
  4403+ 00239C  D001               	goto	i2u2961
  4404+ 00239E  D001               	goto	i2u2960
  4405+ 0023A0                     i2u2961:
  4406+ 0023A0  D7DA               	goto	i2l781
  4407+ 0023A2                     i2u2960:
  4408+                          	
  4409+ 0023A2                     i2l780:		; BSR set to: ?
  4410+                          
  4411+                          	line	12
  4412+ 0023A2  C13F  F13B         	movff	(___wmul@product),(?___wmul)
  4413+ 0023A6  C140  F13C         	movff	(___wmul@product+1),(?___wmul+1)
  4414+ 0023AA  D000               	goto	i2l778
  4415+                          	line	13
  4416+ 0023AC                     i2l778:
  4417+                          			; BSR set to: ?
  4418+                          
  4419+ 0023AC  0012               	return
  4420+                          	opt stack 0
  4421+                          GLOBAL __end_of___wmul
  4422+ 0023AE                     	__end_of___wmul:
  4423                           	FNSIZE	___wmul,2,4
  4424                           ; =============== function ___wmul ends ========
                                 ====
  4425                           
  4426                           	signat	___wmul,8314
  4427                                   psect   text29,class=CODE,space=0,reloc=
                                 2
  4428                           	global	intlevel2
  4429                           
  4430                           	opt lm
  4431                           	FNBREAK _clamp_audio,intlevel2
  4432                           	global	_clamp_audio
  4433                           	global	??_clamp_audio
  4434                           	global	?_clamp_audio
  4435                           	file	"C:\Users\anton\OneDrive\Desktop\Comp_Sci_
                                 Studies\spring_2026\ece_376\term_project\src\mai
                                 n.c"
  4436                           	line	146
  4437  000000                     	__size_of_clamp_audio	equ	__end_of_clamp_audio-
                                 _clamp_audio
  4438                           ;main.c: 145: static signed int clamp_audio(sign
                                 ed int x)
  4439                           ;main.c: 146: {
  4440                           	
  4441  0023AE                     _clamp_audio:		; BSR set to: ?
  4442                           
  4443                           	opt stack 29
  4444                           	line	147
  4445                           ;main.c: 147: if (x > 255) return 255;
  4446  0023AE  0101               	movlb	1	; () banked
  4447  0023B0  0101               	movlb	1	; () banked
  4448  0023B2  513C               	movf	((clamp_audio@x+1))&0ffh,w
  4449  0023B4  0A80               	xorlw	80h
  4450  0023B6  0F7F               	addlw	-((01h)^80h)
  4451  0023B8  0E00               	movlw	0
  4452  0023BA  B4D8               	btfsc	status,2
  4453  0023BC  5D3B               	subwf	((clamp_audio@x))&0ffh,w
  4454  0023BE  A0D8               	btfss	status,0
  4455  0023C0  D001               	goto	i2u2971
  4456  0023C2  D001               	goto	i2u2970
  4457  0023C4                     i2u2971:
  4458  0023C4  D008               	goto	i2l411
  4459  0023C6                     i2u2970:
  4460  0023C6  0EFF               	movlw	low(0FFh)
  4461  0023C8  0101               	movlb	1	; () banked
  4462  0023CA  0101               	movlb	1	; () banked
  4463  0023CC  6F3B               	movwf	((?_clamp_audio))&0ffh
  4464  0023CE  0E00               	movlw	high(0FFh)
  4465  0023D0  0101               	movlb	1	; () banked
  4466  0023D2  6F3C               	movwf	((?_clamp_audio+1))&0ffh
  4467  0023D4  D019               	goto	i2l410
  4468                           	
  4469  0023D6                     i2l411:		; BSR set to: ?
  4470                           
  4471                           	line	148
  4472                           ;main.c: 148: if (x < -256) return -256;
  4473  0023D6  0101               	movlb	1	; () banked
  4474  0023D8  0101               	movlb	1	; () banked
  4475  0023DA  513C               	movf	((clamp_audio@x+1))&0ffh,w
  4476  0023DC  0A80               	xorlw	80h
  4477  0023DE  0F81               	addlw	-((0FFh)^80h)
  4478  0023E0  0E00               	movlw	0
  4479  0023E2  B4D8               	btfsc	status,2
  4480  0023E4  5D3B               	subwf	((clamp_audio@x))&0ffh,w
  4481  0023E6  B0D8               	btfsc	status,0
  4482  0023E8  D001               	goto	i2u2981
  4483  0023EA  D001               	goto	i2u2980
  4484  0023EC                     i2u2981:
  4485  0023EC  D008               	goto	i2l412
  4486  0023EE                     i2u2980:
  4487  0023EE  0E00               	movlw	low(-256)
  4488  0023F0  0101               	movlb	1	; () banked
  4489  0023F2  0101               	movlb	1	; () banked
  4490  0023F4  6F3B               	movwf	((?_clamp_audio))&0ffh
  4491  0023F6  0EFF               	movlw	high(-256)
  4492  0023F8  0101               	movlb	1	; () banked
  4493  0023FA  6F3C               	movwf	((?_clamp_audio+1))&0ffh
  4494  0023FC  D005               	goto	i2l410
  4495                           	
  4496  0023FE                     i2l412:		; BSR set to: ?
  4497                           
  4498                           	line	149
  4499  0023FE  C13B  F13B         	movff	(clamp_audio@x),(?_clamp_audio)
  4500  002402  C13C  F13C         	movff	(clamp_audio@x+1),(?_clamp_audio+1)
  4501  002406  D000               	goto	i2l410
  4502                           	line	150
  4503                           ;main.c: 150: }
  4504  002408                     i2l410:
  4505                           			; BSR set to: ?
  4506                           
  4507  002408  0012               	return
  4508                           	opt stack 0
  4509                           GLOBAL __end_of_clamp_audio
  4510  00240A                     	__end_of_clamp_audio:
  4511                           	FNSIZE	_clamp_audio,0,2
  4512                           ; =============== function _clamp_audio ends ===
                                 =========
  4513                           
  4514                           	signat	_clamp_audio,4218
  4515                           	FNCALL	_main,_lcd_init
  4516                           	FNCALL	_main,_lcd_move
  4517                           	FNCALL	_main,_lcd_print
  4518                           	FNCALL	_main,_wait_ms
  4519                           	FNCALL	_main,_audio_pwm_init
  4520                           	FNCALL	_main,_audio_tick_init
  4521                           	FNCALL	_main,_update_step_timing
  4522                           	FNCALL	_main,_init_demo_pattern
  4523                           	FNCALL	_main,_lcd_out
  4524                           	FNCALL	_lcd_print,_lcd_write
  4525                           	FNCALL	_lcd_move,_lcd_inst
  4526                           	FNCALL	_audio_pwm_init,_pwm_set_midpoint
  4527                           	FNCALL	_audio_tick_init,_timer0_load
  4528                           	FNCALL	_update_step_timing,___lmul
  4529                           	FNCALL	_update_step_timing,___lldiv
  4530                           	FNCALL	_lcd_init,_lcd_inst
  4531                           	FNCALL	_lcd_init,_wait_ms
  4532                           	FNCALL	_lcd_out,_lcd_write
  4533                           	FNCALL	_lcd_out,___almod
  4534                           	FNCALL	_lcd_out,___aldiv
  4535                           	FNCALL	_lcd_write,_lcd_strobe
  4536                           	FNCALL	_lcd_inst,_lcd_strobe
  4537                           	FNCALL	_lcd_inst,_wait_ms
  4538                           	FNCALL	_pwm_set_midpoint,_pwm_set_duty_ccp1
  4539                           	FNCALL	_pwm_set_midpoint,_pwm_set_duty_ccp2
  4540                           	FNCALL	_lcd_strobe,_lcd_pause
  4541                           	FNROOT	_main
  4542                           	FNCALL	_IntServe,i2_timer0_load
  4543                           	FNCALL	_IntServe,_update_audio_output
  4544                           	FNCALL	_update_audio_output,___wmul
  4545                           	FNCALL	_update_audio_output,_clamp_audio
  4546                           	FNCALL	_update_audio_output,_to_pwm_duty
  4547                           	FNCALL	_update_audio_output,i2_pwm_set_duty_ccp
                                 1
  4548                           	FNCALL	_update_audio_output,i2_pwm_set_duty_ccp
                                 2
  4549                           	FNCALL	intlevel2,_IntServe
  4550                           	global	intlevel2
  4551                           	FNROOT	intlevel2
  4552                           	global	_g_bpm
  4553                           	global	_g_bpm
  4554                                   psect   text30,class=CODE,space=0,reloc=
                                 2
  4555  000000                     _g_bpm  equ     120
  4556                           
  4557                           	opt lm
  4558                           
  4559                           	DABS	1,120,2	;_g_bpm
  4560                           	global	_g_kick_half_period
  4561                           	global	_g_kick_half_period
  4562  000000                     _g_kick_half_period  equ     122
  4563                           
  4564                           	DABS	1,122,2	;_g_kick_half_period
  4565                           	global	_g_noise_lfsr
  4566                           	global	_g_noise_lfsr
  4567  000000                     _g_noise_lfsr  equ     124
  4568                           
  4569                           	DABS	1,124,2	;_g_noise_lfsr
  4570                           	global	F1519
  4571  000000                     F1519  equ     126
  4572                           
  4573                           	DABS	1,126,1	;F1519
  4574                           	global	_g_kick_polarity
  4575                           	global	_g_kick_polarity
  4576  000000                     _g_kick_polarity  equ     127
  4577                           
  4578                           	DABS	1,127,1	;_g_kick_polarity
  4579                           	global	_g_pattern_steps
  4580                           	global	_g_pattern_steps
  4581  000000                     _g_pattern_steps  equ     128
  4582                           
  4583                           	DABS	1,128,1	;_g_pattern_steps
  4584                           	global	_g_steps_per_quarter
  4585                           	global	_g_steps_per_quarter
  4586  000000                     _g_steps_per_quarter  equ     129
  4587                           
  4588                           	DABS	1,129,1	;_g_steps_per_quarter
  4589                                   psect   idata,class=CODE,space=0
  4590                           	line	11
  4591                           
  4592                           ;initializer for _g_bpm
  4593  00103C  0078               	dw	(078h)&0ffffh
  4594                           	line	35
  4595                           
  4596                           ;initializer for _g_kick_half_period
  4597  00103E  0078               	dw	(078h)&0ffffh
  4598                           	line	32
  4599                           
  4600                           ;initializer for _g_noise_lfsr
  4601  001040  ACE1               	dw	(0ACE1h)&0ffffh
  4602                           	line	304
  4603                           
  4604                           ;initializer for F1519
  4605  001042  FF                 	db	low(0FFh)
  4606                           	line	37
  4607                           
  4608                           ;initializer for _g_kick_polarity
  4609  001043  01                 	db	low(01h)
  4610                           	line	15
  4611                           
  4612                           ;initializer for _g_pattern_steps
  4613  001044  10                 	db	low(010h)
  4614                           	line	16
  4615                           
  4616                           ;initializer for _g_steps_per_quarter
  4617  001045  02                 	db	low(02h)
  4618                                   psect   smallconst,class=SMALLCONST,spac
                                 e=0,reloc=2
  4619  001000  00                 	db	0	;reserve
  4620                           	global	_g_hihat_pattern
  4621                           	global	_g_hihat_pattern
  4622  000000                     _g_hihat_pattern  equ     74
  4623                           
  4624                           	DABS	1,74,32	;_g_hihat_pattern
  4625                           	global	_g_kick_pattern
  4626                           	global	_g_kick_pattern
  4627  000000                     _g_kick_pattern  equ     42
  4628                           
  4629                           	DABS	1,42,32	;_g_kick_pattern
  4630                           	global	_g_snare_pattern
  4631                           	global	_g_snare_pattern
  4632  000000                     _g_snare_pattern  equ     10
  4633                           
  4634                           	DABS	1,10,32	;_g_snare_pattern
  4635                           	global	_g_audio_ticks
  4636                           	global	_g_audio_ticks
  4637  000000                     _g_audio_ticks  equ     106
  4638                           
  4639                           	DABS	1,106,4	;_g_audio_ticks
  4640                           	global	_g_samples_per_step
  4641                           	global	_g_samples_per_step
  4642  000000                     _g_samples_per_step  equ     116
  4643                           
  4644                           	DABS	1,116,4	;_g_samples_per_step
  4645                           	global	_g_step_accum
  4646                           	global	_g_step_accum
  4647  000000                     _g_step_accum  equ     112
  4648                           
  4649                           	DABS	1,112,4	;_g_step_accum
  4650                           	global	_g_hihat_env
  4651                           	global	_g_hihat_env
  4652  000000                     _g_hihat_env  equ     110
  4653                           
  4654                           	DABS	1,110,2	;_g_hihat_env
  4655                           	global	_g_kick_counter
  4656                           	global	_g_kick_counter
  4657  000000                     _g_kick_counter  equ     4
  4658                           
  4659                           	DABS	1,4,2	;_g_kick_counter
  4660                           	global	_g_kick_env
  4661                           	global	_g_kick_env
  4662  000000                     _g_kick_env  equ     2
  4663                           
  4664                           	DABS	1,2,2	;_g_kick_env
  4665                           	global	_g_snare_env
  4666                           	global	_g_snare_env
  4667  000000                     _g_snare_env  equ     0
  4668                           
  4669                           	DABS	1,0,2	;_g_snare_env
  4670                           	global	_g_hihat_trigger
  4671                           	global	_g_hihat_trigger
  4672  000000                     _g_hihat_trigger  equ     6
  4673                           
  4674                           	DABS	1,6,1	;_g_hihat_trigger
  4675                           	global	_g_kick_trigger
  4676                           	global	_g_kick_trigger
  4677  000000                     _g_kick_trigger  equ     9
  4678                           
  4679                           	DABS	1,9,1	;_g_kick_trigger
  4680                           	global	_g_snare_trigger
  4681                           	global	_g_snare_trigger
  4682  000000                     _g_snare_trigger  equ     8
  4683                           
  4684                           	DABS	1,8,1	;_g_snare_trigger
  4685                           	global	_g_step
  4686                           	global	_g_step
  4687  000000                     _g_step  equ     7
  4688                           
  4689                           	DABS	1,7,1	;_g_step
  4690                           	global	_ADCON1
  4691  000000                     _ADCON1	equ	0xFC1
  4692                           	global	_CCP1CON
  4693  000000                     _CCP1CON	equ	0xFBD
  4694                           	global	_CCP2CON
  4695  000000                     _CCP2CON	equ	0xFBA
  4696                           	global	_CCPR1L
  4697  000000                     _CCPR1L	equ	0xFBE
  4698                           	global	_CCPR2L
  4699  000000                     _CCPR2L	equ	0xFBB
  4700                           	global	_PORTD
  4701  000000                     _PORTD	equ	0xF83
  4702                           	global	_PR2
  4703  000000                     _PR2	equ	0xFCB
  4704                           	global	_T0CON
  4705  000000                     _T0CON	equ	0xFD5
  4706                           	global	_T2CON
  4707  000000                     _T2CON	equ	0xFCA
  4708                           	global	_TMR0H
  4709  000000                     _TMR0H	equ	0xFD7
  4710                           	global	_TMR0L
  4711  000000                     _TMR0L	equ	0xFD6
  4712                           	global	_TRISA
  4713  000000                     _TRISA	equ	0xF92
  4714                           	global	_TRISB
  4715  000000                     _TRISB	equ	0xF93
  4716                           	global	_TRISC
  4717  000000                     _TRISC	equ	0xF94
  4718                           	global	_TRISD
  4719  000000                     _TRISD	equ	0xF95
  4720                           	global	_TRISE
  4721  000000                     _TRISE	equ	0xF96
  4722                           	global	_TXREG
  4723  000000                     _TXREG	equ	0xFAD
  4724                           	global	_DC1B0
  4725  000000                     _DC1B0	equ	0x7DEC
  4726                           	global	_DC1B1
  4727  000000                     _DC1B1	equ	0x7DED
  4728                           	global	_DC2B0
  4729  000000                     _DC2B0	equ	0x7DD4
  4730                           	global	_DC2B1
  4731  000000                     _DC2B1	equ	0x7DD5
  4732                           	global	_GIE
  4733  000000                     _GIE	equ	0x7F97
  4734                           	global	_PEIE
  4735  000000                     _PEIE	equ	0x7F96
  4736                           	global	_RD1
  4737  000000                     _RD1	equ	0x7C19
  4738                           	global	_RD2
  4739  000000                     _RD2	equ	0x7C1A
  4740                           	global	_RD3
  4741  000000                     _RD3	equ	0x7C1B
  4742                           	global	_TMR0IE
  4743  000000                     _TMR0IE	equ	0x7F95
  4744                           	global	_TMR0IF
  4745  000000                     _TMR0IF	equ	0x7F92
  4746                           	global	_TRMT
  4747  000000                     _TRMT	equ	0x7D61
  4748                           	
  4749  001001                     STR_3:		; BSR set to: ?
  4750                           
  4751  001001  20                 	db	32
  4752  001002  20                 	db	32
  4753  001003  20                 	db	32
  4754  001004  20                 	db	32
  4755  001005  20                 	db	32
  4756  001006  20                 	db	32
  4757  001007  20                 	db	32
  4758  001008  20                 	db	32
  4759  001009  20                 	db	32
  4760  00100A  20                 	db	32
  4761  00100B  20                 	db	32
  4762  00100C  20                 	db	32
  4763  00100D  20                 	db	32
  4764  00100E  20                 	db	32
  4765  00100F  20                 	db	32
  4766  001010  20                 	db	32
  4767  001011  00                 	db	0
  4768                           	
  4769  001012                     STR_2:		; BSR set to: ?
  4770                           
  4771  001012  50                 	db	80	;'P'
  4772  001013  52                 	db	82	;'R'
  4773  001014  45                 	db	69	;'E'
  4774  001015  2D                 	db	45
  4775  001016  49                 	db	73	;'I'
  4776  001017  53                 	db	83	;'S'
  4777  001018  52                 	db	82	;'R'
  4778  001019  20                 	db	32
  4779  00101A  4F                 	db	79	;'O'
  4780  00101B  4B                 	db	75	;'K'
  4781  00101C  00                 	db	0
  4782                           	
  4783  00101D                     STR_4:		; BSR set to: ?
  4784                           
  4785  00101D  53                 	db	83	;'S'
  4786  00101E  54                 	db	84	;'T'
  4787  00101F  45                 	db	69	;'E'
  4788  001020  50                 	db	80	;'P'
  4789  001021  3A                 	db	58	;':'
  4790  001022  20                 	db	32
  4791  001023  00                 	db	0
  4792                           	
  4793  001024                     STR_6:		; BSR set to: ?
  4794                           
  4795  001024  42                 	db	66	;'B'
  4796  001025  50                 	db	80	;'P'
  4797  001026  4D                 	db	77	;'M'
  4798  001027  3A                 	db	58	;':'
  4799  001028  20                 	db	32
  4800  001029  00                 	db	0
  4801                           	
  4802  00102A                     STR_1:		; BSR set to: ?
  4803                           
  4804  00102A  52                 	db	82	;'R'
  4805  00102B  45                 	db	69	;'E'
  4806  00102C  41                 	db	65	;'A'
  4807  00102D  44                 	db	68	;'D'
  4808  00102E  59                 	db	89	;'Y'
  4809  00102F  00                 	db	0
  4810                           	
  4811  001030                     STR_5:		; BSR set to: ?
  4812                           
  4813  001030  4C                 	db	76	;'L'
  4814  001031  45                 	db	69	;'E'
  4815  001032  4E                 	db	78	;'N'
  4816  001033  3A                 	db	58	;':'
  4817  001034  20                 	db	32
  4818  001035  00                 	db	0
  4819                           	
  4820  001036                     STR_7:		; BSR set to: ?
  4821                           
  4822  001036  53                 	db	83	;'S'
  4823  001037  50                 	db	80	;'P'
  4824  001038  51                 	db	81	;'Q'
  4825  001039  3A                 	db	58	;':'
  4826  00103A  00                 	db	0
  4827  00103B  00                 	db 0	; dummy byte at the end
  4828                           	psect	intsave_regs,class=BIGRAM,space=1
  4829                           	PSECT	param1,class=BANK1,space=1
  4830                           	GLOBAL	__Lparam1
  4831                           	FNCONF	param1,??,?
  4832                           	GLOBAL	__Labsbss0
  4833  000000                     __Labsbss0	EQU	0
  4834                           	GLOBAL	__Habsbss0
  4835  000000                     __Habsbss0	EQU	120
  4836                           	GLOBAL	__Ldata0
  4837  000000                     __Ldata0	EQU	120
  4838                           	GLOBAL	__Hdata0
  4839  000000                     __Hdata0	EQU	130
  4840                           GLOBAL	__Lparam, __Hparam
  4841                           GLOBAL	__Lparam1, __Hparam1
  4842  000000                     __Lparam	EQU	__Lparam1
  4843  000000                     __Hparam	EQU	__Hparam1


HI-TECH Software PICC-18 Macro Assembler V9.63PL3 build 4692 
Symbol Table                                           Sun Apr 19 20:32:55 2026

           ___wmul@multiplicand 013D     __end_ofi2_pwm_set_duty_ccp1 225C  
   __end_ofi2_pwm_set_duty_ccp2 21E6                             l110 247A  
                           l111 245A                             l112 2494  
                           l109 2494                             l230 216E  
                           l232 214E                             l240 259A  
                           l400 1F94                             l233 2128  
                           l241 2456                             l234 2146  
                           l402 22D0                             l250 1E3E  
                           l242 20F0                             l403 2280  
                           l251 1DFC                             l243 208C  
                           l236 2506                             l228 216E  
                           l404 2346                             l260 191A  
                           l252 1E12                             l244 20AC  
                           l237 24F2                             l229 2102  
                           l405 22F6                             l261 197C  
                           l253 1E28                             l245 20CE  
                           l238 2506                             l406 252C  
                           l254 197C                             l246 20F0  
                           l247 24D0                             l263 1940  
                           l255 1838                             l407 2552  
                           l408 25AE                             l256 184C  
                           l248 1E60                             l257 186C  
                           l249 1E4E                             l409 2586  
                           l441 1116                             l258 1908  
                           l442 112C                             l443 13DC  
                           l444 1246                             l437 1F22  
                           l438 1E76                             l446 13DC  
                           l471 17F4                             l439 1EE4  
                           l480 1716                             l472 167E  
                           l481 1798                             l473 16B2  
                           l482 17E2                             l474 17B4  
                           l483 1B04                             l491 1AC4  
                           l731 1D7C                             l475 170A  
                           l492 1A40                             l484 19CA  
                           l732 1CDE                             l476 16F0  
                           l493 1AA8                             l485 19F6  
                           l725 1D8E                             l733 1D60  
                           l477 1716                             l750 206C  
                           l494 1AF2                             l486 1AC4  
                           l726 1D7C                             l398 1FC8  
                           l487 1A34                             l727 1CD2  
                           l479 17B4                             l399 1F44  
                           l752 205A                             l488 1A1A  
                           l728 1CB8                             l753 1FE4  
                           l489 1A40                             l729 1CDE  
                           l754 2020                             _GIE 007F97  
                           _RD1 007C19                             _RD2 007C1A  
                           _RD3 007C1B                             _PR2 000FCB  
                          F1519 00007E                     lcd_move@col 0104  
                   lcd_move@row 0103                            STR_1 102A  
                          STR_2 1012                            STR_3 1001  
                          STR_4 101D                            STR_5 1030  
                          STR_6 1024                            STR_7 1036  
                   lcd_out@data 0103                            u3000 207A  
                          u3001 2078                            u3010 209A  
                          u3011 2098                            u3100 192C  
                          u3020 20BC                            u3101 192A  
                          u3021 20BA                            u3110 197C  
                          u3030 20DE                            u3111 197A  
                          u3031 20DC                            u3200 1CA6  
                          u3120 1F42                            u3040 1E6E  
                          u3201 1CA4                            u3121 1F40  
                          u3041 1E6C                            u3210 1CDE  
                          u3130 1F94                            u3050 1ECA  
                          u3211 1CDC                            u3131 1F92  
                          u3051 1EC8                            u3300 205A  
                          u3220 1D2A                            u3140 164E  
                          u3060 1802                            u3301 2058  
                          u3221 1D28                            u3141 164C  
                          u3061 1800                            u3310 2126  
                          u3230 199A                            u3150 168A  
                          u3070 186A                            u3311 2124  
                          u3231 1998                            u3151 1688  
                          u3071 1868                            u3320 2146  
                          u3240 19D6                            u3160 16DE  
                          u3080 1908                            u3321 2144  
                          u3241 19D4                            u3161 16DC  
                          u3081 1906                            u3330 216E  
                          u3250 1A08                            u3170 1716  
                          u3090 1918                            u3331 216C  
                          u3251 1A06                            u3171 1714  
                          u3091 1916                            u3340 24F0  
                          u3260 1A40                            u3180 1762  
                          u3341 24EE                            u3261 1A3E  
                          u3181 1760                            u3350 2506  
                          u3270 1A78                            u3190 17C2  
                          u3351 2504                            u3271 1A76  
                          u3191 17C0                            u3280 1AD2  
                          u3281 1AD0                            u3290 1FF0  
                          u3291 1FEE                            u2900 1124  
                          u2901 1122                            u2910 125A  
                          u2911 1258                            u2920 22E8  
                          u2921 22E6                            _PEIE 007F96  
                          u2860 2272                            u2861 2270  
                          u2935 233A                            u2945 2346  
                          u2890 110E                            u2875 22C4  
                          u2891 110C                            u2885 22D0  
                          u2990 2494                            u2991 2492  
                          _TRMT 007D61                            _main 1046  
                          fsr0h 000FEA                            fsr1h 000FE2  
                          indf0 000FEF                            fsr0l 000FE9  
                          fsr2h 000FDA                            fsr1l 000FE1  
                          fsr2l 000FD9                    lcd_init@mode 0103  
                          pclat 000FFA                            prodh 000FF4  
                          prodl 000FF3                            start 0818  
         __end_ofi2_timer0_load 25A6                           _DC1B0 007DEC  
                         _DC1B1 007DED                           _DC2B0 007DD4  
                         _DC2B1 007DD5                 __end_of___aldiv 17F6  
               __end_of___almod 1B06                           ?_main 0100  
               __end_of___lldiv 1D90                           _T0CON 000FD5  
                         _T2CON 000FCA                           i2l410 2408  
                         i2l402 225A                           i2l411 23D6  
                         i2l403 220A                           i2l412 23FE  
                         i2l404 21E4                           i2l420 150E  
                         i2l413 2570                           i2l405 2194  
                         i2l421 1580                           i2l414 1630  
                         i2l422 1578                           i2l430 1B9C  
                         i2l423 1580                           i2l415 150E  
                         i2l431 1BB6                           i2l408 25A4  
                         i2l424 15F2                           i2l416 1498  
                         i2l432 1BD0                           i2l425 15EA  
                         i2l417 1496                           i2l433 1BEA  
                         i2l426 15F2                           i2l418 149E  
                         i2l434 1C14                           i2l419 1506  
                         i2l427 1C44                           i2l435 1C2A  
                         i2l436 1C40                           i2l428 1C44  
                         i2l429 1C40                           i2l780 23A2  
                         i2l781 2356                           i2l782 237A  
                         i2l778 23AC                           _TMR0H 000FD7  
                         _TMR0L 000FD6                           _PORTD 000F83  
                         _TRISA 000F92                           _TRISB 000F93  
                         _TRISC 000F94                           _TRISD 000F95  
                         _TRISE 000F96                           _TXREG 000FAD  
           ___lmul@multiplicand 010B                    lcd_print@msg 0103  
               __end_of_lcd_out 197E                           _g_bpm 000078  
                         tablat 000FF5                 __end_of_wait_ms 2170  
                         status 000FD8                    __end_of_main 13E2  
              ??_audio_pwm_init 0103                __end_of_IntServe 1C7A  
                        ??_main 0100                   __activetblptr 000001  
           _g_steps_per_quarter 000081                          _ADCON1 000FC1  
                        _CCPR1L 000FBE                          _CCPR2L 000FBB  
                        i2u2700 1478                          i2u2701 1476  
                        i2u2710 1492                          i2u2711 1490  
                        i2u2720 14FC                          i2u2800 1BB2  
                        i2u2721 14FA                          i2u2801 1BB0  
                        i2u2730 151A                          i2u2810 1BCC  
                        i2u2731 1518                          i2u2811 1BCA  
                        i2u2740 156E                          i2u2820 1BE6  
                        i2u2741 156C                          i2u2821 1BE4  
                        i2u2750 158C                          i2u2830 1BF4  
                        i2u2751 158A                          i2u2831 1BF2  
                        i2u2920 2186                          i2u2760 15E0  
                        i2u2680 1452                          i2u2840 1C1E  
                        i2u2921 2184                          i2u2761 15DE  
                        i2u2681 1450                          i2u2841 1C1C  
                        i2u2690 146C                          i2u2850 1C34  
                        i2u2770 1B38                          i2u2691 146A  
                        i2u2851 1C32                          i2u2771 1B36  
                        i2u2860 21FC                          i2u2780 1B76  
                        i2u2861 21FA                          i2u2781 1B74  
                        i2u2950 2362                          i2u2790 1B98  
                        i2u2951 2360                          i2u2935 21D8  
                        i2u2791 1B96                          i2u2960 23A2  
                        i2u2961 23A0                          i2u2945 21E4  
                        i2u2970 23C6                          i2u2971 23C4  
                        i2u2875 224E                          i2u2980 23EE  
                        i2u2981 23EC                          i2u2885 225A  
                        _TMR0IE 007F95                          _TMR0IF 007F92  
               _g_snare_pattern 00000A                          __Ldata 000078  
              __end_of_lcd_init 1E62                __end_of_lcd_inst 2458  
              __end_of_lcd_move 20F2                          ___lmul 1FCA  
                     ??___aldiv 011D                 _g_snare_trigger 000008  
                     ??___almod 011D                          ___wmul 2348  
                     ??___lldiv 010F                    ?_timer0_load 0104  
                        _g_step 000007                       ??_lcd_out 0109  
                _g_kick_counter 000004                    __mediumconst 103C  
                _g_kick_pattern 00002A                          tblptrh 000FF7  
                        tblptrl 000FF6                          tblptru 000FF8  
                     ??_wait_ms 0109                  _g_kick_trigger 000009  
    __end_of_update_step_timing 1F24                      __accesstop 0080  
                  ?_to_pwm_duty 013B               ??_audio_tick_init 0103  
                     ?_IntServe 0124                 _g_hihat_pattern 00004A  
                    _g_kick_env 000002                 _g_hihat_trigger 000006  
                       ?___lmul 0107                         ?___wmul 013B  
            init_demo_pattern@i 0103                         _CCP1CON 000FBD  
                       _CCP2CON 000FBA                  ___lmul@product 010F  
                    _lcd_strobe 2588                       ?_lcd_init 0103  
                     ?_lcd_inst 0105                       ?_lcd_move 0103  
                  _g_noise_lfsr 00007C                      ??_IntServe 0124  
                       __Hdata0 000082                         __Ldata0 000078  
                       __Hparam 0141                         __Lparam 0100  
       pwm_set_duty_ccp1@duty10 0104         pwm_set_duty_ccp2@duty10 0104  
             __end_of_lcd_pause 2508                         ___aldiv 1632  
                       ___almod 197E               __end_of_lcd_print 2496  
             __end_of_lcd_write 24D2                         ___lldiv 1C7A  
                       __ramtop 1000                         _lcd_out 17F6  
                  _g_step_accum 000070                ___aldiv@dividend 0115  
                       _wait_ms 20F2                      ??_lcd_init 0104  
                    ??_lcd_inst 0106                      ??_lcd_move 0105  
              _pwm_set_midpoint 2508                   __Lmediumconst 103C  
                       int_func 0808                 ___lldiv@divisor 010B  
               ___lldiv@counter 010F             _update_audio_output 13E2  
                 ??_clamp_audio 013D                ___aldiv@quotient 011F  
               _g_kick_polarity 00007F            ?_update_audio_output 0131  
                   ?_lcd_strobe 0117              _g_kick_half_period 00007A  
               _audio_tick_init 2572                      lcd_pause@x 0117  
              main@current_step 0100                      lcd_write@c 0115  
            _update_step_timing 1E62                  __end_of___lmul 206E  
                __end_of___wmul 23AE                   i2_timer0_load 259C  
           __end_of_clamp_audio 240A             ?_update_step_timing 0103  
                 _g_audio_ticks 00006A           ??_update_audio_output 0131  
                     __Habsbss0 000078                       __Labsbss0 000000  
          ??_update_step_timing 0103                        ??___lmul 010F  
           i2_pwm_set_duty_ccp1 21E6             i2_pwm_set_duty_ccp2 2170  
                      ??___wmul 013F                  ?i2_timer0_load 0131  
       __end_of_audio_tick_init 2588            ?i2_pwm_set_duty_ccp1 013B  
          ?i2_pwm_set_duty_ccp2 013B                     _g_hihat_env 00006E  
                   _clamp_audio 23AE                        ?___aldiv 0115  
                      ?___almod 0115                        ?___lldiv 0107  
             _init_demo_pattern 1F24              ?_init_demo_pattern 0103  
                     _lcd_pause 24D2                ___almod@dividend 0115  
                     _lcd_print 2458        __end_of_pwm_set_midpoint 252E  
                     _lcd_write 2496                        ?_lcd_out 0103  
                   __smallconst 1000                     _g_snare_env 000000  
           ??_init_demo_pattern 0103           ??i2_pwm_set_duty_ccp1 013D  
         ??i2_pwm_set_duty_ccp2 013D                        ?_wait_ms 0107  
             to_pwm_duty@sample 013B                 ___aldiv@divisor 0119  
               ___aldiv@counter 011D                  ___wmul@product 013F  
     __end_of_init_demo_pattern 1FCA                 ??i2_timer0_load 0131  
                 ??_timer0_load 0104                     i2l500000267 1460  
                    ?_lcd_pause 0117                      ?_lcd_print 0103  
                    ?_lcd_write 0115               ___wmul@multiplier 013B  
                     lcd_inst@c 0105                ?_audio_tick_init 0103  
                _audio_pwm_init 252E  update_audio_output@drum_sample 0133  
     i2pwm_set_duty_ccp1@duty10 013B       i2pwm_set_duty_ccp2@duty10 013B  
                  ??_lcd_strobe 0117               ___lmul@multiplier 0107  
                      _IntServe 1B06        update_audio_output@noise 0131  
                      __Hparam1 0141                   ??_to_pwm_duty 013D  
                      __Lparam1 0100                    __Lsmallconst 1000  
            __end_of_lcd_strobe 259C                    clamp_audio@x 013B  
        __end_of_audio_pwm_init 2554             __end_of_timer0_load 25B0  
                      _lcd_init 1D90                        _lcd_inst 240A  
                      _lcd_move 206E                 ___almod@divisor 0119  
               ___almod@counter 011E             __end_of_to_pwm_duty 2572  
   __end_of_update_audio_output 1632                        lcd_out@a 010A  
                      lcd_out@d 0107                        lcd_out@i 0109  
                      lcd_out@n 0108              _g_samples_per_step 000074  
                   ??_lcd_pause 0117                     ??_lcd_print 0105  
                   ??_lcd_write 0116                 ?_audio_pwm_init 0103  
             _pwm_set_duty_ccp1 225C               _pwm_set_duty_ccp2 22D2  
                      intlevel2 25B0              ?_pwm_set_duty_ccp1 0104  
            ?_pwm_set_duty_ccp2 0104                ___lldiv@dividend 0107  
           ??_pwm_set_duty_ccp1 0106             ??_pwm_set_duty_ccp2 0106  
               _g_pattern_steps 000080                        wait_ms@i 0109  
                      wait_ms@j 010B                        wait_ms@x 0107  
                  ?_clamp_audio 013B                     _timer0_load 25A6  
       update_step_timing@denom 0103               ?_pwm_set_midpoint 0104  
              ___lldiv@quotient 0110              ??_pwm_set_midpoint 0104  
     __end_of_pwm_set_duty_ccp1 22D2       __end_of_pwm_set_duty_ccp2 2348  
                  ___aldiv@sign 011E                    ___almod@sign 011D  
                   _to_pwm_duty 2554  
